(dp0
S'gene'
p1
(dp2
S'rname'
p3
S'`gene`'
p4
sS'sortable'
p5
I3
sS'raw_rname'
p6
S'gene'
p7
sS'notnull'
p8
I00
sS'length'
p9
I500
sS'sql'
p10
S'VARCHAR(500)'
p11
sS'unique'
p12
I00
sS'type'
p13
S'string'
p14
ssS'name_panel'
p15
(dp16
g3
S'`name_panel`'
p17
sg5
I2
sg6
S'name_panel'
p18
sg8
I00
sg9
I50
sg10
S'VARCHAR(50)'
p19
sg12
I00
sg13
g14
ssS'id'
p20
(dp21
g3
S'`id`'
p22
sg5
I1
sg6
S'id'
p23
sg8
I00
sg9
I512
sg10
S'INT AUTO_INCREMENT NOT NULL'
p24
sg12
I00
sg13
g23
ss.