(dp1
S'output'
p2
S'<class \'gluon.contrib.pymysql.err.InternalError\'> (1050, u"Table \'auth_user\' already exists")'
p3
sS'layer'
p4
S'/home/www-data/web2py/applications/iVar/models/db.py'
p5
sS'code'
p6
S'<code object <module> at 0x7f572811feb0, file "/home/www-data/web2py/applications/iVar/models/db.py", line 21>'
p7
sS'snapshot'
p8
(dp9
S'exception'
p10
(dp11
S'__module__'
p12
S"'gluon.contrib.pymysql.err'"
p13
sS'__getslice__'
p14
S"<method-wrapper '__getslice__' of InternalError object>"
p15
sS'__str__'
p16
S"<method-wrapper '__str__' of InternalError object>"
p17
sS'__reduce__'
p18
S'<built-in method __reduce__ of InternalError object>'
p19
sS'__dict__'
p20
S'{}'
p21
sS'__sizeof__'
p22
S'<built-in method __sizeof__ of InternalError object>'
p23
sS'__weakref__'
p24
S'None'
p25
sS'message'
p26
S"''"
p27
sS'__init__'
p28
S"<method-wrapper '__init__' of InternalError object>"
p29
sS'__setattr__'
p30
S"<method-wrapper '__setattr__' of InternalError object>"
p31
sS'__reduce_ex__'
p32
S'<built-in method __reduce_ex__ of InternalError object>'
p33
sS'__new__'
p34
S'<built-in method __new__ of type object>'
p35
sS'__format__'
p36
S'<built-in method __format__ of InternalError object>'
p37
sS'__class__'
p38
S"<class 'gluon.contrib.pymysql.err.InternalError'>"
p39
sS'__doc__'
p40
S"'Exception raised when the database encounters an...anymore, the transaction is\\n    out of sync, etc.'"
p41
sS'__getitem__'
p42
S"<method-wrapper '__getitem__' of InternalError object>"
p43
sS'__setstate__'
p44
S'<built-in method __setstate__ of InternalError object>'
p45
sS'__getattribute__'
p46
S"<method-wrapper '__getattribute__' of InternalError object>"
p47
sS'args'
p48
S'(1050, u"Table \'auth_user\' already exists")'
p49
sS'__subclasshook__'
p50
S'<built-in method __subclasshook__ of type object>'
p51
sS'__unicode__'
p52
S'<built-in method __unicode__ of InternalError object>'
p53
sS'__delattr__'
p54
S"<method-wrapper '__delattr__' of InternalError object>"
p55
sS'__repr__'
p56
S"<method-wrapper '__repr__' of InternalError object>"
p57
sS'__hash__'
p58
S"<method-wrapper '__hash__' of InternalError object>"
p59
ssS'evalue'
p60
S'(1050, u"Table \'auth_user\' already exists")'
p61
sS'request'
p62
cgluon.html
XML_unpickle
p63
(S's\xcao\x00\x00<div><table><tr><td style="font-weight:bold;vertical-align:top;">ajax</td><td style="vertical-align:top;">:</td><td><div>True</div></td></tr><tr><td style="font-weight:bold;vertical-align:top;">application</td><td style="vertical-align:top;">:</td><td><div>iVar</div></td></tr><tr><td style="font-weight:bold;vertical-align:top;">args</td><td style="vertical-align:top;">:</td><td><div><table></table></div></td></tr><tr><td style="font-weight:bold;vertical-align:top;">cid</td><td style="vertical-align:top;">:</td><td><div>c248377921889</div></td></tr><tr><td style="font-weight:bold;vertical-align:top;">client</td><td style="vertical-align:top;">:</td><td><div>95.255.220.24</div></td></tr><tr><td style="font-weight:bold;vertical-align:top;">controller</td><td style="vertical-align:top;">:</td><td><div>appadmin</div></td></tr><tr><td style="font-weight:bold;vertical-align:top;">cookies</td><td style="vertical-align:top;">:</td><td><div><table><tr><td style="font-weight:bold;vertical-align:top;">session_id_admin</td><td style="vertical-align:top;">:</td><td><div>95.255.220.24-61d0d86c-4830-404f-bcce-094949e20241<table><tr><td style="font-weight:bold;vertical-align:top;">comment</td><td style="vertical-align:top;">:</td><td><div></div></td></tr><tr><td style="font-weight:bold;vertical-align:top;">domain</td><td style="vertical-align:top;">:</td><td><div></div></td></tr><tr><td style="font-weight:bold;vertical-align:top;">expires</td><td style="vertical-align:top;">:</td><td><div></div></td></tr><tr><td style="font-weight:bold;vertical-align:top;">httponly</td><td style="vertical-align:top;">:</td><td><div></div></td></tr><tr><td style="font-weight:bold;vertical-align:top;">max-age</td><td style="vertical-align:top;">:</td><td><div></div></td></tr><tr><td style="font-weight:bold;vertical-align:top;">path</td><td style="vertical-align:top;">:</td><td><div></div></td></tr><tr><td style="font-weight:bold;vertical-align:top;">samesite</td><td style="vertical-align:top;">:</td><td><div></div></td></tr><tr><td style="font-weight:bold;vertical-align:top;">secure</td><td style="vertical-align:top;">:</td><td><div></div></td></tr><tr><td style="font-weight:bold;vertical-align:top;">version</td><td style="vertical-align:top;">:</td><td><div></div></td></tr></table></div></td></tr><tr><td style="font-weight:bold;vertical-align:top;">session_id_eb</td><td style="vertical-align:top;">:</td><td><div>95.255.220.24-15954304-5185-4239-8b3e-acc7615a965b<table><tr><td style="font-weight:bold;vertical-align:top;">comment</td><td style="vertical-align:top;">:</td><td><div></div></td></tr><tr><td style="font-weight:bold;vertical-align:top;">domain</td><td style="vertical-align:top;">:</td><td><div></div></td></tr><tr><td style="font-weight:bold;vertical-align:top;">expires</td><td style="vertical-align:top;">:</td><td><div></div></td></tr><tr><td style="font-weight:bold;vertical-align:top;">httponly</td><td style="vertical-align:top;">:</td><td><div></div></td></tr><tr><td style="font-weight:bold;vertical-align:top;">max-age</td><td style="vertical-align:top;">:</td><td><div></div></td></tr><tr><td style="font-weight:bold;vertical-align:top;">path</td><td style="vertical-align:top;">:</td><td><div></div></td></tr><tr><td style="font-weight:bold;vertical-align:top;">samesite</td><td style="vertical-align:top;">:</td><td><div></div></td></tr><tr><td style="font-weight:bold;vertical-align:top;">secure</td><td style="vertical-align:top;">:</td><td><div></div></td></tr><tr><td style="font-weight:bold;vertical-align:top;">version</td><td style="vertical-align:top;">:</td><td><div></div></td></tr></table></div></td></tr><tr><td style="font-weight:bold;vertical-align:top;">session_id_ivar</td><td style="vertical-align:top;">:</td><td><div>95.255.220.24-59372e42-a1c0-492e-812f-b44c6a4a6623<table><tr><td style="font-weight:bold;vertical-align:top;">comment</td><td style="vertical-align:top;">:</td><td><div></div></td></tr><tr><td style="font-weight:bold;vertical-align:top;">domain</td><td style="vertical-align:top;">:</td><td><div></div></td></tr><tr><td style="font-weight:bold;vertical-align:top;">expires</td><td style="vertical-align:top;">:</td><td><div></div></td></tr><tr><td style="font-weight:bold;vertical-align:top;">httponly</td><td style="vertical-align:top;">:</td><td><div></div></td></tr><tr><td style="font-weight:bold;vertical-align:top;">max-age</td><td style="vertical-align:top;">:</td><td><div></div></td></tr><tr><td style="font-weight:bold;vertical-align:top;">path</td><td style="vertical-align:top;">:</td><td><div></div></td></tr><tr><td style="font-weight:bold;vertical-align:top;">samesite</td><td style="vertical-align:top;">:</td><td><div></div></td></tr><tr><td style="font-weight:bold;vertical-align:top;">secure</td><td style="vertical-align:top;">:</td><td><div></div></td></tr><tr><td style="font-weight:bold;vertical-align:top;">version</td><td style="vertical-align:top;">:</td><td><div></div></td></tr></table></div></td></tr><tr><td style="font-weight:bold;vertical-align:top;">session_id_welcome</td><td style="vertical-align:top;">:</td><td><div>95.255.220.24-ab26e042-6798-4877-a390-5b80e1667290<table><tr><td style="font-weight:bold;vertical-align:top;">comment</td><td style="vertical-align:top;">:</td><td><div></div></td></tr><tr><td style="font-weight:bold;vertical-align:top;">domain</td><td style="vertical-align:top;">:</td><td><div></div></td></tr><tr><td style="font-weight:bold;vertical-align:top;">expires</td><td style="vertical-align:top;">:</td><td><div></div></td></tr><tr><td style="font-weight:bold;vertical-align:top;">httponly</td><td style="vertical-align:top;">:</td><td><div></div></td></tr><tr><td style="font-weight:bold;vertical-align:top;">max-age</td><td style="vertical-align:top;">:</td><td><div></div></td></tr><tr><td style="font-weight:bold;vertical-align:top;">path</td><td style="vertical-align:top;">:</td><td><div></div></td></tr><tr><td style="font-weight:bold;vertical-align:top;">samesite</td><td style="vertical-align:top;">:</td><td><div></div></td></tr><tr><td style="font-weight:bold;vertical-align:top;">secure</td><td style="vertical-align:top;">:</td><td><div></div></td></tr><tr><td style="font-weight:bold;vertical-align:top;">version</td><td style="vertical-align:top;">:</td><td><div></div></td></tr></table></div></td></tr></table></div></td></tr><tr><td style="font-weight:bold;vertical-align:top;">env</td><td style="vertical-align:top;">:</td><td><div><table><tr><td style="font-weight:bold;vertical-align:top;">CONTENT_TYPE</td><td style="vertical-align:top;">:</td><td><div>application/x-www-form-urlencoded; charset=UTF-8</div></td></tr><tr><td style="font-weight:bold;vertical-align:top;">HTTPS</td><td style="vertical-align:top;">:</td><td><div>on</div></td></tr><tr><td style="font-weight:bold;vertical-align:top;">HTTP_ACCEPT</td><td style="vertical-align:top;">:</td><td><div>*/*</div></td></tr><tr><td style="font-weight:bold;vertical-align:top;">HTTP_ACCEPT_ENCODING</td><td style="vertical-align:top;">:</td><td><div>gzip, deflate, br</div></td></tr><tr><td style="font-weight:bold;vertical-align:top;">HTTP_ACCEPT_LANGUAGE</td><td style="vertical-align:top;">:</td><td><div>it-IT,it;q=0.9,en-US;q=0.8,en;q=0.7</div></td></tr><tr><td style="font-weight:bold;vertical-align:top;">HTTP_CONNECTION</td><td style="vertical-align:top;">:</td><td><div>keep-alive</div></td></tr><tr><td style="font-weight:bold;vertical-align:top;">HTTP_CONTENT_TYPE</td><td style="vertical-align:top;">:</td><td><div>application/x-www-form-urlencoded; charset=UTF-8</div></td></tr><tr><td style="font-weight:bold;vertical-align:top;">HTTP_COOKIE</td><td style="vertical-align:top;">:</td><td><div>session_id_welcome=95.255.220.24-ab26e042-6798-4877-a390-5b80e1667290; session_id_admin=95.255.220.24-61d0d86c-4830-404f-bcce-094949e20241; session_id_ivar=95.255.220.24-59372e42-a1c0-492e-812f-b44c6a4a6623; session_id_eb=95.255.220.24-15954304-5185-4239-8b3e-acc7615a965b</div></td></tr><tr><td style="font-weight:bold;vertical-align:top;">HTTP_HOST</td><td style="vertical-align:top;">:</td><td><div>web2py.nabla2.it:9000</div></td></tr><tr><td style="font-weight:bold;vertical-align:top;">HTTP_REFERER</td><td style="vertical-align:top;">:</td><td><div>https://web2py.nabla2.it:9000/admin/default/edit/iVar/models/db.py?id=models__db__py</div></td></tr><tr><td style="font-weight:bold;vertical-align:top;">HTTP_SEC_FETCH_DEST</td><td style="vertical-align:top;">:</td><td><div>empty</div></td></tr><tr><td style="font-weight:bold;vertical-align:top;">HTTP_SEC_FETCH_MODE</td><td style="vertical-align:top;">:</td><td><div>cors</div></td></tr><tr><td style="font-weight:bold;vertical-align:top;">HTTP_SEC_FETCH_SITE</td><td style="vertical-align:top;">:</td><td><div>same-origin</div></td></tr><tr><td style="font-weight:bold;vertical-align:top;">HTTP_USER_AGENT</td><td style="vertical-align:top;">:</td><td><div>Mozilla/5.0 (Windows NT 10.0; Win64; x64) AppleWebKit/537.36 (KHTML, like Gecko) Chrome/86.0.4240.111 Safari/537.36</div></td></tr><tr><td style="font-weight:bold;vertical-align:top;">HTTP_WEB2PY_COMPONENT_ELEMENT</td><td style="vertical-align:top;">:</td><td><div>c248377921889</div></td></tr><tr><td style="font-weight:bold;vertical-align:top;">HTTP_WEB2PY_COMPONENT_LOCATION</td><td style="vertical-align:top;">:</td><td><div>https://web2py.nabla2.it:9000/admin/default/edit/iVar/models/db.py?id=models__db__py</div></td></tr><tr><td style="font-weight:bold;vertical-align:top;">HTTP_X_REQUESTED_WITH</td><td style="vertical-align:top;">:</td><td><div>XMLHttpRequest</div></td></tr><tr><td style="font-weight:bold;vertical-align:top;">PATH_INFO</td><td style="vertical-align:top;">:</td><td><div>/iVar/appadmin/hooks</div></td></tr><tr><td style="font-weight:bold;vertical-align:top;">QUERY_STRING</td><td style="vertical-align:top;">:</td><td><div></div></td></tr><tr><td style="font-weight:bold;vertical-align:top;">REMOTE_ADDR</td><td style="vertical-align:top;">:</td><td><div>95.255.220.24</div></td></tr><tr><td style="font-weight:bold;vertical-align:top;">REMOTE_PORT</td><td style="vertical-align:top;">:</td><td><div>51260</div></td></tr><tr><td style="font-weight:bold;vertical-align:top;">REQUEST_METHOD</td><td style="vertical-align:top;">:</td><td><div>GET</div></td></tr><tr><td style="font-weight:bold;vertical-align:top;">SCRIPT_NAME</td><td style="vertical-align:top;">:</td><td><div></div></td></tr><tr><td style="font-weight:bold;vertical-align:top;">SERVER_NAME</td><td style="vertical-align:top;">:</td><td><div>minezzi</div></td></tr><tr><td style="font-weight:bold;vertical-align:top;">SERVER_PORT</td><td style="vertical-align:top;">:</td><td><div>9000</div></td></tr><tr><td style="font-weight:bold;vertical-align:top;">SERVER_PROTOCOL</td><td style="vertical-align:top;">:</td><td><div>HTTP/1.1</div></td></tr><tr><td style="font-weight:bold;vertical-align:top;">SERVER_SOFTWARE</td><td style="vertical-align:top;">:</td><td><div>Rocket 1.2.6</div></td></tr><tr><td style="font-weight:bold;vertical-align:top;">SSL_CLIENT_RAW_CERT</td><td style="vertical-align:top;">:</td><td><div>None</div></td></tr><tr><td style="font-weight:bold;vertical-align:top;">app_folders</td><td style="vertical-align:top;">:</td><td><div>set([&#x27;/home/www-data/web2py/applications/iVar&#x27;, &#x27;/home/www-data/web2py/applications/admin&#x27;])</div></td></tr><tr><td style="font-weight:bold;vertical-align:top;">applications_parent</td><td style="vertical-align:top;">:</td><td><div>/home/www-data/web2py</div></td></tr><tr><td style="font-weight:bold;vertical-align:top;">cmd_args</td><td style="vertical-align:top;">:</td><td><div><table></table></div></td></tr><tr><td style="font-weight:bold;vertical-align:top;">cmd_options</td><td style="vertical-align:top;">:</td><td><div>&lt;Values at 0x7f573a069af0: {&#x27;verbose&#x27;: False, &#x27;ip&#x27;: &#x27;0.0.0.0&#x27;, &#x27;debuglevel&#x27;: 30, &#x27;with_scheduler&#x27;: False, &#x27;shutdown_timeout&#x27;: 5, &#x27;taskbar&#x27;: False, &#x27;with_coverage&#x27;: False, &#x27;pid_filename&#x27;: &#x27;httpserver.pid&#x27;, &#x27;maxthreads&#x27;: None, &#x27;softcron&#x27;: False, &#x27;server_name&#x27;: &#x27;minezzi&#x27;, &#x27;bpython&#x27;: False, &#x27;nogui&#x27;: False, &#x27;port&#x27;: 9000, &#x27;print_errors&#x27;: False, &#x27;extcron&#x27;: False, &#x27;runcron&#x27;: False, &#x27;run_system_tests&#x27;: False, &#x27;test&#x27;: None, &#x27;folder&#x27;: &#x27;/home/www-data/web2py&#x27;, &#x27;config&#x27;: &#x27;&#x27;, &#x27;minthreads&#x27;: None, &#x27;shell&#x27;: None, &#x27;run&#x27;: &#x27;&#x27;, &#x27;log_filename&#x27;: &#x27;httpserver.log&#x27;, &#x27;profiler_dir&#x27;: None, &#x27;args&#x27;: [], &#x27;socket_timeout&#x27;: 5, &#x27;ssl_ca_certificate&#x27;: None, &#x27;scheduler&#x27;: None, &#x27;interfaces&#x27;: None, &#x27;ssl_private_key&#x27;: &#x27;/etc/letsencrypt/live/web2py.nabla2.it/privkey.pem&#x27;, &#x27;gae&#x27;: None, &#x27;password&#x27;: &#x27;******&#x27;, &#x27;request_queue_size&#x27;: 5, &#x27;ssl_certificate&#x27;: &#x27;/etc/letsencrypt/live/web2py.nabla2.it/cert.pem&#x27;, &#x27;cronjob&#x27;: False, &#x27;numthreads&#x27;: None, &#x27;quiet&#x27;: False, &#x27;import_models&#x27;: False, &#x27;timeout&#x27;: 10, &#x27;plain&#x27;: False, &#x27;nobanner&#x27;: False}&gt;</div></td></tr><tr><td style="font-weight:bold;vertical-align:top;">content_type</td><td style="vertical-align:top;">:</td><td><div>application/x-www-form-urlencoded; charset=UTF-8</div></td></tr><tr><td style="font-weight:bold;vertical-align:top;">db_sessions</td><td style="vertical-align:top;">:</td><td><div>set([])</div></td></tr><tr><td style="font-weight:bold;vertical-align:top;">debugging</td><td style="vertical-align:top;">:</td><td><div>False</div></td></tr><tr><td style="font-weight:bold;vertical-align:top;">gluon_parent</td><td style="vertical-align:top;">:</td><td><div>/home/www-data/web2py</div></td></tr><tr><td style="font-weight:bold;vertical-align:top;">http_accept</td><td style="vertical-align:top;">:</td><td><div>*/*</div></td></tr><tr><td style="font-weight:bold;vertical-align:top;">http_accept_encoding</td><td style="vertical-align:top;">:</td><td><div>gzip, deflate, br</div></td></tr><tr><td style="font-weight:bold;vertical-align:top;">http_accept_language</td><td style="vertical-align:top;">:</td><td><div>it-IT,it;q=0.9,en-US;q=0.8,en;q=0.7</div></td></tr><tr><td style="font-weight:bold;vertical-align:top;">http_connection</td><td style="vertical-align:top;">:</td><td><div>keep-alive</div></td></tr><tr><td style="font-weight:bold;vertical-align:top;">http_content_type</td><td style="vertical-align:top;">:</td><td><div>application/x-www-form-urlencoded; charset=UTF-8</div></td></tr><tr><td style="font-weight:bold;vertical-align:top;">http_cookie</td><td style="vertical-align:top;">:</td><td><div>session_id_welcome=95.255.220.24-ab26e042-6798-4877-a390-5b80e1667290; session_id_admin=95.255.220.24-61d0d86c-4830-404f-bcce-094949e20241; session_id_ivar=95.255.220.24-59372e42-a1c0-492e-812f-b44c6a4a6623; session_id_eb=95.255.220.24-15954304-5185-4239-8b3e-acc7615a965b</div></td></tr><tr><td style="font-weight:bold;vertical-align:top;">http_host</td><td style="vertical-align:top;">:</td><td><div>web2py.nabla2.it:9000</div></td></tr><tr><td style="font-weight:bold;vertical-align:top;">http_referer</td><td style="vertical-align:top;">:</td><td><div>https://web2py.nabla2.it:9000/admin/default/edit/iVar/models/db.py?id=models__db__py</div></td></tr><tr><td style="font-weight:bold;vertical-align:top;">http_sec_fetch_dest</td><td style="vertical-align:top;">:</td><td><div>empty</div></td></tr><tr><td style="font-weight:bold;vertical-align:top;">http_sec_fetch_mode</td><td style="vertical-align:top;">:</td><td><div>cors</div></td></tr><tr><td style="font-weight:bold;vertical-align:top;">http_sec_fetch_site</td><td style="vertical-align:top;">:</td><td><div>same-origin</div></td></tr><tr><td style="font-weight:bold;vertical-align:top;">http_user_agent</td><td style="vertical-align:top;">:</td><td><div>Mozilla/5.0 (Windows NT 10.0; Win64; x64) AppleWebKit/537.36 (KHTML, like Gecko) Chrome/86.0.4240.111 Safari/537.36</div></td></tr><tr><td style="font-weight:bold;vertical-align:top;">http_web2py_component_element</td><td style="vertical-align:top;">:</td><td><div>c248377921889</div></td></tr><tr><td style="font-weight:bold;vertical-align:top;">http_web2py_component_location</td><td style="vertical-align:top;">:</td><td><div>https://web2py.nabla2.it:9000/admin/default/edit/iVar/models/db.py?id=models__db__py</div></td></tr><tr><td style="font-weight:bold;vertical-align:top;">http_x_requested_with</td><td style="vertical-align:top;">:</td><td><div>XMLHttpRequest</div></td></tr><tr><td style="font-weight:bold;vertical-align:top;">https</td><td style="vertical-align:top;">:</td><td><div>on</div></td></tr><tr><td style="font-weight:bold;vertical-align:top;">is_jython</td><td style="vertical-align:top;">:</td><td><div>False</div></td></tr><tr><td style="font-weight:bold;vertical-align:top;">is_py2</td><td style="vertical-align:top;">:</td><td><div>True</div></td></tr><tr><td style="font-weight:bold;vertical-align:top;">is_pypy</td><td style="vertical-align:top;">:</td><td><div>False</div></td></tr><tr><td style="font-weight:bold;vertical-align:top;">is_source</td><td style="vertical-align:top;">:</td><td><div>True</div></td></tr><tr><td style="font-weight:bold;vertical-align:top;">local_hosts</td><td style="vertical-align:top;">:</td><td><div><table><tr><td><div>::1</div></td></tr><tr><td><div>127.0.1.1</div></td></tr><tr><td><div>::ffff:127.0.0.1</div></td></tr><tr><td><div>127.0.0.1</div></td></tr><tr><td><div>minezzi</div></td></tr></table></div></td></tr><tr><td style="font-weight:bold;vertical-align:top;">path_info</td><td style="vertical-align:top;">:</td><td><div>/iVar/appadmin/hooks</div></td></tr><tr><td style="font-weight:bold;vertical-align:top;">query_string</td><td style="vertical-align:top;">:</td><td><div></div></td></tr><tr><td style="font-weight:bold;vertical-align:top;">remote_addr</td><td style="vertical-align:top;">:</td><td><div>95.255.220.24</div></td></tr><tr><td style="font-weight:bold;vertical-align:top;">remote_port</td><td style="vertical-align:top;">:</td><td><div>51260</div></td></tr><tr><td style="font-weight:bold;vertical-align:top;">request_method</td><td style="vertical-align:top;">:</td><td><div>GET</div></td></tr><tr><td style="font-weight:bold;vertical-align:top;">request_uri</td><td style="vertical-align:top;">:</td><td><div>/iVar/appadmin/hooks</div></td></tr><tr><td style="font-weight:bold;vertical-align:top;">script_name</td><td style="vertical-align:top;">:</td><td><div></div></td></tr><tr><td style="font-weight:bold;vertical-align:top;">server_name</td><td style="vertical-align:top;">:</td><td><div>minezzi</div></td></tr><tr><td style="font-weight:bold;vertical-align:top;">server_port</td><td style="vertical-align:top;">:</td><td><div>9000</div></td></tr><tr><td style="font-weight:bold;vertical-align:top;">server_protocol</td><td style="vertical-align:top;">:</td><td><div>HTTP/1.1</div></td></tr><tr><td style="font-weight:bold;vertical-align:top;">server_software</td><td style="vertical-align:top;">:</td><td><div>Rocket 1.2.6</div></td></tr><tr><td style="font-weight:bold;vertical-align:top;">ssl_client_raw_cert</td><td style="vertical-align:top;">:</td><td><div>None</div></td></tr><tr><td style="font-weight:bold;vertical-align:top;">web2py_path</td><td style="vertical-align:top;">:</td><td><div>/home/www-data/web2py</div></td></tr><tr><td style="font-weight:bold;vertical-align:top;">web2py_version</td><td style="vertical-align:top;">:</td><td><div>2.18.5-stable+timestamp.2019.04.08.04.22.03</div></td></tr><tr><td style="font-weight:bold;vertical-align:top;">wsgi.errors</td><td style="vertical-align:top;">:</td><td><div>&lt;open file &#x27;&lt;stderr&gt;&#x27;, mode &#x27;w&#x27; at 0x7f5741138270&gt;</div></td></tr><tr><td style="font-weight:bold;vertical-align:top;">wsgi.file_wrapper</td><td style="vertical-align:top;">:</td><td><div>&lt;class wsgiref.util.FileWrapper at 0x7f573a0a74b0&gt;</div></td></tr><tr><td style="font-weight:bold;vertical-align:top;">wsgi.input</td><td style="vertical-align:top;">:</td><td><div>&lt;socket._fileobject object at 0x7f5709c77ed0&gt;</div></td></tr><tr><td style="font-weight:bold;vertical-align:top;">wsgi.multiprocess</td><td style="vertical-align:top;">:</td><td><div>False</div></td></tr><tr><td style="font-weight:bold;vertical-align:top;">wsgi.multithread</td><td style="vertical-align:top;">:</td><td><div>True</div></td></tr><tr><td style="font-weight:bold;vertical-align:top;">wsgi.run_once</td><td style="vertical-align:top;">:</td><td><div>False</div></td></tr><tr><td style="font-weight:bold;vertical-align:top;">wsgi.url_scheme</td><td style="vertical-align:top;">:</td><td><div>https</div></td></tr><tr><td style="font-weight:bold;vertical-align:top;">wsgi.version</td><td style="vertical-align:top;">:</td><td><div><table><tr><td><div>1</div></td></tr><tr><td><div>0</div></td></tr></table></div></td></tr><tr><td style="font-weight:bold;vertical-align:top;">wsgi_errors</td><td style="vertical-align:top;">:</td><td><div>&lt;open file &#x27;&lt;stderr&gt;&#x27;, mode &#x27;w&#x27; at 0x7f5741138270&gt;</div></td></tr><tr><td style="font-weight:bold;vertical-align:top;">wsgi_file_wrapper</td><td style="vertical-align:top;">:</td><td><div>&lt;class wsgiref.util.FileWrapper at 0x7f573a0a74b0&gt;</div></td></tr><tr><td style="font-weight:bold;vertical-align:top;">wsgi_input</td><td style="vertical-align:top;">:</td><td><div>&lt;socket._fileobject object at 0x7f5709c77ed0&gt;</div></td></tr><tr><td style="font-weight:bold;vertical-align:top;">wsgi_multiprocess</td><td style="vertical-align:top;">:</td><td><div>False</div></td></tr><tr><td style="font-weight:bold;vertical-align:top;">wsgi_multithread</td><td style="vertical-align:top;">:</td><td><div>True</div></td></tr><tr><td style="font-weight:bold;vertical-align:top;">wsgi_run_once</td><td style="vertical-align:top;">:</td><td><div>False</div></td></tr><tr><td style="font-weight:bold;vertical-align:top;">wsgi_url_scheme</td><td style="vertical-align:top;">:</td><td><div>https</div></td></tr><tr><td style="font-weight:bold;vertical-align:top;">wsgi_version</td><td style="vertical-align:top;">:</td><td><div><table><tr><td><div>1</div></td></tr><tr><td><div>0</div></td></tr></table></div></td></tr></table></div></td></tr><tr><td style="font-weight:bold;vertical-align:top;">extension</td><td style="vertical-align:top;">:</td><td><div>html</div></td></tr><tr><td style="font-weight:bold;vertical-align:top;">folder</td><td style="vertical-align:top;">:</td><td><div>/home/www-data/web2py/applications/iVar</div></td></tr><tr><td style="font-weight:bold;vertical-align:top;">function</td><td style="vertical-align:top;">:</td><td><div>hooks</div></td></tr><tr><td style="font-weight:bold;vertical-align:top;">global_settings</td><td style="vertical-align:top;">:</td><td><div><table><tr><td style="font-weight:bold;vertical-align:top;">app_folders</td><td style="vertical-align:top;">:</td><td><div>set([&#x27;/home/www-data/web2py/applications/iVar&#x27;, &#x27;/home/www-data/web2py/applications/admin&#x27;])</div></td></tr><tr><td style="font-weight:bold;vertical-align:top;">applications_parent</td><td style="vertical-align:top;">:</td><td><div>/home/www-data/web2py</div></td></tr><tr><td style="font-weight:bold;vertical-align:top;">cmd_args</td><td style="vertical-align:top;">:</td><td><div><table></table></div></td></tr><tr><td style="font-weight:bold;vertical-align:top;">cmd_options</td><td style="vertical-align:top;">:</td><td><div>&lt;Values at 0x7f573a069af0: {&#x27;verbose&#x27;: False, &#x27;ip&#x27;: &#x27;0.0.0.0&#x27;, &#x27;debuglevel&#x27;: 30, &#x27;with_scheduler&#x27;: False, &#x27;shutdown_timeout&#x27;: 5, &#x27;taskbar&#x27;: False, &#x27;with_coverage&#x27;: False, &#x27;pid_filename&#x27;: &#x27;httpserver.pid&#x27;, &#x27;maxthreads&#x27;: None, &#x27;softcron&#x27;: False, &#x27;server_name&#x27;: &#x27;minezzi&#x27;, &#x27;bpython&#x27;: False, &#x27;nogui&#x27;: False, &#x27;port&#x27;: 9000, &#x27;print_errors&#x27;: False, &#x27;extcron&#x27;: False, &#x27;runcron&#x27;: False, &#x27;run_system_tests&#x27;: False, &#x27;test&#x27;: None, &#x27;folder&#x27;: &#x27;/home/www-data/web2py&#x27;, &#x27;config&#x27;: &#x27;&#x27;, &#x27;minthreads&#x27;: None, &#x27;shell&#x27;: None, &#x27;run&#x27;: &#x27;&#x27;, &#x27;log_filename&#x27;: &#x27;httpserver.log&#x27;, &#x27;profiler_dir&#x27;: None, &#x27;args&#x27;: [], &#x27;socket_timeout&#x27;: 5, &#x27;ssl_ca_certificate&#x27;: None, &#x27;scheduler&#x27;: None, &#x27;interfaces&#x27;: None, &#x27;ssl_private_key&#x27;: &#x27;/etc/letsencrypt/live/web2py.nabla2.it/privkey.pem&#x27;, &#x27;gae&#x27;: None, &#x27;password&#x27;: &#x27;******&#x27;, &#x27;request_queue_size&#x27;: 5, &#x27;ssl_certificate&#x27;: &#x27;/etc/letsencrypt/live/web2py.nabla2.it/cert.pem&#x27;, &#x27;cronjob&#x27;: False, &#x27;numthreads&#x27;: None, &#x27;quiet&#x27;: False, &#x27;import_models&#x27;: False, &#x27;timeout&#x27;: 10, &#x27;plain&#x27;: False, &#x27;nobanner&#x27;: False}&gt;</div></td></tr><tr><td style="font-weight:bold;vertical-align:top;">db_sessions</td><td style="vertical-align:top;">:</td><td><div>set([])</div></td></tr><tr><td style="font-weight:bold;vertical-align:top;">debugging</td><td style="vertical-align:top;">:</td><td><div>False</div></td></tr><tr><td style="font-weight:bold;vertical-align:top;">gluon_parent</td><td style="vertical-align:top;">:</td><td><div>/home/www-data/web2py</div></td></tr><tr><td style="font-weight:bold;vertical-align:top;">is_jython</td><td style="vertical-align:top;">:</td><td><div>False</div></td></tr><tr><td style="font-weight:bold;vertical-align:top;">is_py2</td><td style="vertical-align:top;">:</td><td><div>True</div></td></tr><tr><td style="font-weight:bold;vertical-align:top;">is_pypy</td><td style="vertical-align:top;">:</td><td><div>False</div></td></tr><tr><td style="font-weight:bold;vertical-align:top;">is_source</td><td style="vertical-align:top;">:</td><td><div>True</div></td></tr><tr><td style="font-weight:bold;vertical-align:top;">local_hosts</td><td style="vertical-align:top;">:</td><td><div><table><tr><td><div>::1</div></td></tr><tr><td><div>127.0.1.1</div></td></tr><tr><td><div>::ffff:127.0.0.1</div></td></tr><tr><td><div>127.0.0.1</div></td></tr><tr><td><div>minezzi</div></td></tr></table></div></td></tr><tr><td style="font-weight:bold;vertical-align:top;">web2py_version</td><td style="vertical-align:top;">:</td><td><div>2.18.5-stable+timestamp.2019.04.08.04.22.03</div></td></tr></table></div></td></tr><tr><td style="font-weight:bold;vertical-align:top;">is_https</td><td style="vertical-align:top;">:</td><td><div>True</div></td></tr><tr><td style="font-weight:bold;vertical-align:top;">is_local</td><td style="vertical-align:top;">:</td><td><div>False</div></td></tr><tr><td style="font-weight:bold;vertical-align:top;">is_restful</td><td style="vertical-align:top;">:</td><td><div>False</div></td></tr><tr><td style="font-weight:bold;vertical-align:top;">is_scheduler</td><td style="vertical-align:top;">:</td><td><div>False</div></td></tr><tr><td style="font-weight:bold;vertical-align:top;">is_shell</td><td style="vertical-align:top;">:</td><td><div>False</div></td></tr><tr><td style="font-weight:bold;vertical-align:top;">method</td><td style="vertical-align:top;">:</td><td><div>GET</div></td></tr><tr><td style="font-weight:bold;vertical-align:top;">now</td><td style="vertical-align:top;">:</td><td><div>datetime.datetime(2020, 10, 24, 10, 19, 6, 429629)</div></td></tr><tr><td style="font-weight:bold;vertical-align:top;">raw_args</td><td style="vertical-align:top;">:</td><td><div></div></td></tr><tr><td style="font-weight:bold;vertical-align:top;">raw_extension</td><td style="vertical-align:top;">:</td><td><div>None</div></td></tr><tr><td style="font-weight:bold;vertical-align:top;">url</td><td style="vertical-align:top;">:</td><td><div>/iVar/appadmin/hooks</div></td></tr><tr><td style="font-weight:bold;vertical-align:top;">utcnow</td><td style="vertical-align:top;">:</td><td><div>datetime.datetime(2020, 10, 24, 8, 19, 6, 429654)</div></td></tr><tr><td style="font-weight:bold;vertical-align:top;">wsgi</td><td style="vertical-align:top;">:</td><td><div>&lt;gluon.main.LazyWSGI object at 0x7f5709450490&gt;</div></td></tr></table></div>'
tRp64
sS'frames'
p65
(lp66
(dp67
S'file'
p68
S'/home/www-data/web2py/gluon/restricted.py'
p69
sS'dump'
p70
(dp71
S'environment'
p72
S"{'A': <class 'gluon.html.A'>, 'ANY_OF': <class 'pydal.validators.ANY_OF'>, 'ASSIGNJS': <function ASSIGNJS>, 'AppConfig': <function AppConfig>, 'Auth': <class 'gluon.tools.Auth'>, 'B': <class 'gluon.html.B'>, 'BEAUTIFY': <class 'gluon.html.BEAUTIFY'>, 'BODY': <class 'gluon.html.BODY'>, 'BR': <class 'gluon.html.BR'>, 'BUTTON': <class 'gluon.html.BUTTON'>, ...}"
p73
sS'ccode'
p74
S'<code object <module> at 0x7f572811feb0, file "/.../web2py/applications/iVar/models/db.py", line 21>'
p75
ssS'lnum'
p76
I219
sS'lines'
p77
(dp78
I214
S'    if environment is None:'
p79
sI215
S'        environment = {}'
p80
sI216
S"    environment['__file__'] = layer"
p81
sI217
S"    environment['__name__'] = '__restricted__'"
p82
sI218
S'    try:'
p83
sI219
S'        exec(ccode, environment)'
p84
sI220
S'    except HTTP:'
p85
sI221
S'        raise'
p86
sI222
S'    except RestrictedError:'
p87
sI223
S'        # do not encapsulate (obfuscate) the original RestrictedError'
p88
ssS'call'
p89
S'(ccode=<code object <module> at 0x7f572811feb0, file "/.../web2py/applications/iVar/models/db.py", line 21>, environment={\'A\': <class \'gluon.html.A\'>, \'ANY_OF\': <class \'pydal.validators.ANY_OF\'>, \'ASSIGNJS\': <function ASSIGNJS>, \'AppConfig\': <function AppConfig>, \'Auth\': <class \'gluon.tools.Auth\'>, \'B\': <class \'gluon.html.B\'>, \'BEAUTIFY\': <class \'gluon.html.BEAUTIFY\'>, \'BODY\': <class \'gluon.html.BODY\'>, \'BR\': <class \'gluon.html.BR\'>, \'BUTTON\': <class \'gluon.html.BUTTON\'>, ...}, layer=\'/home/www-data/web2py/applications/iVar/models/db.py\', scode=<code object <module> at 0x7f572811feb0, file "/.../web2py/applications/iVar/models/db.py", line 21>)'
p90
sS'func'
p91
S'restricted'
p92
sa(dp93
g68
S'/home/www-data/web2py/applications/iVar/models/db.py'
p94
sg70
(dp95
S'username'
p96
S'undefined'
p97
sS'auth.define_tables'
p98
S'<bound method Auth.define_tables of <gluon.tools.Auth object>>'
p99
sS'builtinFalse'
p100
S'False'
p101
sS'auth'
p102
S'<gluon.tools.Auth object>'
p103
sS'signature'
p104
g97
ssg76
I120
sg77
(dp105
I115
S''
sI116
S'# -------------------------------------------------------------------------'
p106
sI117
S'# create all tables needed by auth, maybe add a list of extra fields'
p107
sI118
S'# -------------------------------------------------------------------------'
p108
sI119
S"auth.settings.extra_fields['auth_user'] = []"
p109
sI120
S'auth.define_tables(username=False, signature=False)'
p110
sI121
S''
sI122
S'# -------------------------------------------------------------------------'
p111
sI123
S'# configure email'
p112
sI124
S'# -------------------------------------------------------------------------'
p113
ssg89
S'()'
p114
sg91
S'<module>'
p115
sa(dp116
g68
S'/home/www-data/web2py/gluon/tools.py'
p117
sg70
(dp118
S'username'
p119
g101
sS'migrate'
p120
S'True'
p121
sS'self'
p122
S'<gluon.tools.Auth object>'
p123
sS'fake_migrate'
p124
g101
sS'global Auth'
p125
S"<class 'gluon.tools.Auth'>"
p126
sS')._table_signature_list'
p127
g97
sS'signature'
p128
g101
sS'builtinsuper'
p129
S"<type 'super'>"
p130
sS').define_tables'
p131
S'<bound method Auth.define_tables of <gluon.tools.Auth object>>'
p132
ssg76
I2092
sg77
(dp133
I2087
S'        if fake_migrate is None:'
p134
sI2088
S'            fake_migrate = db._fake_migrate'
p135
sI2089
S'        settings = self.settings'
p136
sI2090
S'        settings.enable_tokens = enable_tokens'
p137
sI2091
S'        signature_list = \\'
p138
sI2092
S'            super(Auth, self).define_tables(username, signature, migrate, fake_migrate)._table_signature_list'
p139
sI2093
S''
sI2094
S'        now = current.request.now'
p140
sI2095
S"        reference_table_user = 'reference %s' % settings.table_user_name"
p141
sI2096
S'        if settings.cas_domains:'
p142
ssg89
S'(self=<gluon.tools.Auth object>, username=False, signature=False, enable_tokens=False, migrate=True, fake_migrate=False)'
p143
sg91
S'define_tables'
p144
sa(dp145
g68
S'/home/www-data/web2py/gluon/authapi.py'
p146
sg70
(dp147
S'builtinformat'
p148
S'<built-in function format>'
p149
ssg76
I350
sg77
(dp150
I352
S'        if settings.table_group_name not in db.tables:'
p151
sI353
S'            extra_fields = settings.extra_fields.get('
p152
sI354
S'                settings.table_group_name, []) + signature_list'
p153
sI345
S'                    *extra_fields,'
p154
sI346
S'                    **dict('
p155
sI347
S'                        migrate=self._get_migrate(settings.table_user_name,'
p156
sI348
S'                                                  migrate),'
p157
sI349
S'                        fake_migrate=fake_migrate,'
p158
sI350
S"                        format='%(first_name)s %(last_name)s (%(id)s)'))"
p159
sI351
S"        reference_table_user = 'reference %s' % settings.table_user_name"
p160
ssg89
S'(self=<gluon.tools.Auth object>, username=False, signature=False, migrate=True, fake_migrate=False)'
p161
sg91
g144
sa(dp162
g68
S'/home/www-data/web2py/gluon/packages/dal/pydal/base.py'
p163
sg70
(dp164
S'fields'
p165
S'(<pydal.objects.Field object>, <pydal.objects.Field object>, <pydal.objects.Field object>, <pydal.objects.Field object>, <pydal.objects.Field object>, <pydal.objects.Field object>, <pydal.objects.Field object>)'
p166
sS'self'
p167
S'<DAL uri="mysql://******@localhost/ivar">'
p168
sS'tablename'
p169
S"'auth_user'"
p170
sS'kwargs'
p171
S"{'fake_migrate': False, 'format': '%(first_name)s %(last_name)s (%(id)s)', 'migrate': True}"
p172
sS'table'
p173
g97
sS'self.lazy_define_table'
p174
S'<bound method DAL.lazy_define_table of <DAL uri="mysql://******@localhost/ivar">>'
p175
ssg76
I592
sg77
(dp176
I587
S'        if self._lazy_tables:'
p177
sI588
S'            if tablename not in self._LAZY_TABLES or redefine:'
p178
sI589
S'                self._LAZY_TABLES[tablename] = (tablename, fields, kwargs)'
p179
sI590
S'            table = None'
p180
sI591
S'        else:'
p181
sI592
S'            table = self.lazy_define_table(tablename, *fields, **kwargs)'
p182
sI593
S'        if tablename not in self.tables:'
p183
sI594
S'            self.tables.append(tablename)'
p184
sI595
S'        return table'
p185
sI596
S''
ssg89
S'(self=<DAL uri="mysql://******@localhost/ivar">, tablename=\'auth_user\', *fields=(<pydal.objects.Field object>, <pydal.objects.Field object>, <pydal.objects.Field object>, <pydal.objects.Field object>, <pydal.objects.Field object>, <pydal.objects.Field object>, <pydal.objects.Field object>), **kwargs={\'fake_migrate\': False, \'format\': \'%(first_name)s %(last_name)s (%(id)s)\', \'migrate\': True})'
p186
sg91
S'define_table'
p187
sa(dp188
g68
S'/home/www-data/web2py/gluon/packages/dal/pydal/base.py'
p189
sg70
(dp190
S'polymodel'
p191
S'None'
p192
ssg76
I626
sg77
(dp193
I621
S'            try:'
p194
sI622
S'                GLOBAL_LOCKER.acquire()'
p195
sI623
S'                self._adapter.create_table('
p196
sI624
S'                    table, migrate=migrate,'
p197
sI625
S'                    fake_migrate=fake_migrate,'
p198
sI626
S'                    polymodel=polymodel)'
p199
sI627
S'            finally:'
p200
sI628
S'                GLOBAL_LOCKER.release()'
p201
sI629
S'        else:'
p202
sI630
S'            table._dbt = None'
p203
ssg89
S'(self=<DAL uri="mysql://******@localhost/ivar">, tablename=\'auth_user\', *fields=(<pydal.objects.Field object>, <pydal.objects.Field object>, <pydal.objects.Field object>, <pydal.objects.Field object>, <pydal.objects.Field object>, <pydal.objects.Field object>, <pydal.objects.Field object>), **kwargs={\'fake_migrate\': False, \'format\': \'%(first_name)s %(last_name)s (%(id)s)\', \'migrate\': True})'
p204
sg91
S'lazy_define_table'
p205
sa(dp206
g68
S'/home/www-data/web2py/gluon/packages/dal/pydal/adapters/base.py'
p207
sg70
(dp208
S'self'
p209
S'<pydal.adapters.mysql.MySQL object>'
p210
sS'args'
p211
S'(<Table auth_user (id, first_name, last_name, ema...ration_key, reset_password_key, registration_id)>,)'
p212
sS'self.migrator'
p213
S'<pydal.migrator.Migrator object>'
p214
sS'self.migrator.create_table'
p215
S'<bound method Migrator.create_table of <pydal.migrator.Migrator object>>'
p216
sS'kwargs'
p217
S"{'fake_migrate': False, 'migrate': True, 'polymodel': None}"
p218
ssg76
I798
sg77
(dp219
I800
S'    def _drop_table_cleanup(self, table):'
p220
sI801
S'        super(SQLAdapter, self)._drop_table_cleanup(table)'
p221
sI802
S'        if table._dbt:'
p222
sI793
S''
sI794
S'    def bulk_insert(self, table, items):'
p223
sI795
S'        return [self.insert(table, item) for item in items]'
p224
sI796
S''
sI797
S'    def create_table(self, *args, **kwargs):'
p225
sI798
S'        return self.migrator.create_table(*args, **kwargs)'
p226
sI799
S''
ssg89
S"(self=<pydal.adapters.mysql.MySQL object>, *args=(<Table auth_user (id, first_name, last_name, ema...ration_key, reset_password_key, registration_id)>,), **kwargs={'fake_migrate': False, 'migrate': True, 'polymodel': None})"
p227
sg91
S'create_table'
p228
sa(dp229
g68
S'/home/www-data/web2py/gluon/packages/dal/pydal/migrator.py'
p230
sg70
(dp231
S'query'
p232
S"'CREATE TABLE `auth_user`(\\n    `id` INT AUTO_INCR...RY KEY (`id`)\\n) ENGINE=InnoDB CHARACTER SET utf8;'"
p233
sS'self'
p234
S'<pydal.migrator.Migrator object>'
p235
sS'self.adapter'
p236
S'<pydal.adapters.mysql.MySQL object>'
p237
sS'self.adapter.create_sequence_and_triggers'
p238
S'<bound method MySQL.create_sequence_and_triggers of <pydal.adapters.mysql.MySQL object>>'
p239
sS'table'
p240
S'<Table auth_user (id, first_name, last_name, ema...ration_key, reset_password_key, registration_id)>'
p241
ssg76
I281
sg77
(dp242
I276
S'            if table._dbt:'
p243
sI277
S"                self.log('timestamp: %s\\n%s\\n'"
p244
sI278
S'                         % (datetime.datetime.today().isoformat(),'
p245
sI279
S'                            query), table)'
p246
sI280
S'            if not fake_migrate:'
p247
sI281
S'                self.adapter.create_sequence_and_triggers(query, table)'
p248
sI282
S'                db.commit()'
p249
sI283
S'                # Postgres geom fields are added now,'
p250
sI284
S'                # after the table has been created'
p251
sI285
S'                for query in postcreation_fields:'
p252
ssg89
S'(self=<pydal.migrator.Migrator object>, table=<Table auth_user (id, first_name, last_name, ema...ration_key, reset_password_key, registration_id)>, migrate=True, fake_migrate=False, polymodel=None)'
p253
sg91
g228
sa(dp254
g68
S'/home/www-data/web2py/gluon/packages/dal/pydal/adapters/base.py'
p255
sg70
(dp256
S'query'
p257
S"'CREATE TABLE `auth_user`(\\n    `id` INT AUTO_INCR...RY KEY (`id`)\\n) ENGINE=InnoDB CHARACTER SET utf8;'"
p258
sS'self'
p259
S'<pydal.adapters.mysql.MySQL object>'
p260
sS'self.execute'
p261
S'<bound method MySQL.wrap of <pydal.adapters.mysql.MySQL object>>'
p262
ssg76
I881
sg77
(dp263
I876
S'    @with_connection'
p264
sI877
S'    def rollback_prepared(self, key):'
p265
sI878
S'        self.connection.rollback()'
p266
sI879
S''
sI880
S'    def create_sequence_and_triggers(self, query, table, **args):'
p267
sI881
S'        self.execute(query)'
p268
sI882
S''
sI883
S'    def sqlsafe_table(self, tablename, original_tablename=None):'
p269
sI884
S'        if original_tablename is not None:'
p270
sI885
S'            return self.dialect.alias(original_tablename, tablename)'
p271
ssg89
S"(self=<pydal.adapters.mysql.MySQL object>, query='CREATE TABLE `auth_user`(\\n    `id` INT AUTO_INCR...RY KEY (`id`)\\n) ENGINE=InnoDB CHARACTER SET utf8;', table=<Table auth_user (id, first_name, last_name, ema...ration_key, reset_password_key, registration_id)>, **args={})"
p272
sg91
S'create_sequence_and_triggers'
p273
sa(dp274
g68
S'/home/www-data/web2py/gluon/packages/dal/pydal/adapters/__init__.py'
p275
sg70
(dp276
S'kwargs'
p277
g21
sS'args'
p278
S"(<pydal.adapters.mysql.MySQL object>, 'CREATE TABLE `auth_user`(\\n    `id` INT AUTO_INCR...RY KEY (`id`)\\n) ENGINE=InnoDB CHARACTER SET utf8;')"
p279
sS'f'
S'<function execute>'
p280
ssg76
I67
sg77
(dp281
I64
S'            if len(args) > 1:'
p282
sI65
S'                raise ValueError(args[1])'
p283
sI66
S"            raise RuntimeError('no connection available')"
p284
sI67
S'        return f(*args, **kwargs)'
p285
sI68
S'    return wrap'
p286
sI69
S''
sI70
S''
sI71
S'from .base import SQLAdapter, NoSQLAdapter'
p287
sI62
S'    def wrap(*args, **kwargs):'
p288
sI63
S'        if not args[0].connection:'
p289
ssg89
S"(*args=(<pydal.adapters.mysql.MySQL object>, 'CREATE TABLE `auth_user`(\\n    `id` INT AUTO_INCR...RY KEY (`id`)\\n) ENGINE=InnoDB CHARACTER SET utf8;'), **kwargs={})"
p290
sg91
S'wrap'
p291
sa(dp292
g68
S'/home/www-data/web2py/gluon/packages/dal/pydal/adapters/base.py'
p293
sg70
(dp294
S'rv'
p295
g97
sS'self'
p296
S'<pydal.adapters.mysql.MySQL object>'
p297
sS'args'
p298
S"('CREATE TABLE `auth_user`(\\n    `id` INT AUTO_INCR...RY KEY (`id`)\\n) ENGINE=InnoDB CHARACTER SET utf8;',)"
p299
sS'self.cursor'
p300
S'<gluon.contrib.pymysql.cursors.Cursor object>'
p301
sS'command'
p302
S"'CREATE TABLE `auth_user`(\\n    `id` INT AUTO_INCR...RY KEY (`id`)\\n) ENGINE=InnoDB CHARACTER SET utf8;'"
p303
sS'self.cursor.execute'
p304
S'<bound method Cursor.execute of <gluon.contrib.pymysql.cursors.Cursor object>>'
p305
sS'kwargs'
p306
g21
ssg76
I413
sg77
(dp307
I416
S'        return rv'
p308
sI417
S''
sI408
S'    def execute(self, *args, **kwargs):'
p309
sI409
S'        command = self.filter_sql_command(args[0])'
p310
sI410
S'        handlers = self._build_handlers_for_execution()'
p311
sI411
S'        for handler in handlers:'
p312
sI412
S'            handler.before_execute(command)'
p313
sI413
S'        rv = self.cursor.execute(command, *args[1:], **kwargs)'
p314
sI414
S'        for handler in handlers:'
p315
sI415
S'            handler.after_execute(command)'
p316
ssg89
S"(self=<pydal.adapters.mysql.MySQL object>, *args=('CREATE TABLE `auth_user`(\\n    `id` INT AUTO_INCR...RY KEY (`id`)\\n) ENGINE=InnoDB CHARACTER SET utf8;',), **kwargs={})"
p317
sg91
S'execute'
p318
sa(dp319
g68
S'/home/www-data/web2py/gluon/contrib/pymysql/cursors.py'
p320
sg70
(dp321
S'query'
p322
S"'CREATE TABLE `auth_user`(\\n    `id` INT AUTO_INCR...RY KEY (`id`)\\n) ENGINE=InnoDB CHARACTER SET utf8;'"
p323
sS'self'
p324
S'<gluon.contrib.pymysql.cursors.Cursor object>'
p325
sS'result'
p326
g97
sS'self._query'
p327
S'<bound method Cursor._query of <gluon.contrib.pymysql.cursors.Cursor object>>'
p328
ssg76
I166
sg77
(dp329
I161
S'        while self.nextset():'
p330
sI162
S'            pass'
p331
sI163
S''
sI164
S'        query = self.mogrify(query, args)'
p332
sI165
S''
sI166
S'        result = self._query(query)'
p333
sI167
S'        self._executed = query'
p334
sI168
S'        return result'
p335
sI169
S''
sI170
S'    def executemany(self, query, args):'
p336
ssg89
S"(self=<gluon.contrib.pymysql.cursors.Cursor object>, query='CREATE TABLE `auth_user`(\\n    `id` INT AUTO_INCR...RY KEY (`id`)\\n) ENGINE=InnoDB CHARACTER SET utf8;', args=None)"
p337
sg91
g318
sa(dp338
g68
S'/home/www-data/web2py/gluon/contrib/pymysql/cursors.py'
p339
sg70
(dp340
S'q'
S"'CREATE TABLE `auth_user`(\\n    `id` INT AUTO_INCR...RY KEY (`id`)\\n) ENGINE=InnoDB CHARACTER SET utf8;'"
p341
sS'conn.query'
p342
S'<bound method Connection.query of <gluon.contrib.pymysql.connections.Connection object>>'
p343
sS'conn'
p344
S'<gluon.contrib.pymysql.connections.Connection object>'
p345
ssg76
I322
sg77
(dp346
I320
S'        conn = self._get_db()'
p347
sI321
S'        self._last_executed = q'
p348
sI322
S'        conn.query(q)'
p349
sI323
S'        self._do_get_result()'
p350
sI324
S'        return self.rowcount'
p351
sI325
S''
sI326
S'    def _do_get_result(self):'
p352
sI317
S'        self.rownumber = r'
p353
sI318
S''
sI319
S'    def _query(self, q):'
p354
ssg89
S"(self=<gluon.contrib.pymysql.cursors.Cursor object>, q='CREATE TABLE `auth_user`(\\n    `id` INT AUTO_INCR...RY KEY (`id`)\\n) ENGINE=InnoDB CHARACTER SET utf8;')"
p355
sg91
S'_query'
p356
sa(dp357
g68
S'/home/www-data/web2py/gluon/contrib/pymysql/connections.py'
p358
sg70
(dp359
S'self._read_query_result'
p360
S'<bound method Connection._read_query_result of <...n.contrib.pymysql.connections.Connection object>>'
p361
sS'self'
p362
S'<gluon.contrib.pymysql.connections.Connection object>'
p363
sS'unbuffered'
p364
g101
sS'self._affected_rows'
p365
S'1'
ssg76
I835
sg77
(dp366
I832
S'            else:'
p367
sI833
S"                sql = sql.encode(self.encoding, 'surrogateescape')"
p368
sI834
S'        self._execute_command(COMMAND.COM_QUERY, sql)'
p369
sI835
S'        self._affected_rows = self._read_query_result(unbuffered=unbuffered)'
p370
sI836
S'        return self._affected_rows'
p371
sI837
S''
sI838
S'    def next_result(self, unbuffered=False):'
p372
sI839
S'        self._affected_rows = self._read_query_result(unbuffered=unbuffered)'
p373
sI830
S'            if PY2:'
p374
sI831
S'                sql = sql.encode(self.encoding)'
p375
ssg89
S"(self=<gluon.contrib.pymysql.connections.Connection object>, sql='CREATE TABLE `auth_user`(\\n    `id` INT AUTO_INCR...RY KEY (`id`)\\n) ENGINE=InnoDB CHARACTER SET utf8;', unbuffered=False)"
p376
sg91
S'query'
p377
sa(dp378
g68
S'/home/www-data/web2py/gluon/contrib/pymysql/connections.py'
p379
sg70
(dp380
S'result.read'
p381
S'<bound method MySQLResult.read of <gluon.contrib.pymysql.connections.MySQLResult object>>'
p382
sS'result'
p383
S'<gluon.contrib.pymysql.connections.MySQLResult object>'
p384
ssg76
I1019
sg77
(dp385
I1014
S'                result.unbuffered_active = False'
p386
sI1015
S'                result.connection = None'
p387
sI1016
S'                raise'
p388
sI1017
S'        else:'
p389
sI1018
S'            result = MySQLResult(self)'
p390
sI1019
S'            result.read()'
p391
sI1020
S'        self._result = result'
p392
sI1021
S'        if result.server_status is not None:'
p393
sI1022
S'            self.server_status = result.server_status'
p394
sI1023
S'        return result.affected_rows'
p395
ssg89
S'(self=<gluon.contrib.pymysql.connections.Connection object>, unbuffered=False)'
p396
sg91
S'_read_query_result'
p397
sa(dp398
g68
S'/home/www-data/web2py/gluon/contrib/pymysql/connections.py'
p399
sg70
(dp400
S'first_packet'
p401
g97
sS'self'
p402
S'<gluon.contrib.pymysql.connections.MySQLResult object>'
p403
sS'self.connection'
p404
S'None'
p405
sS'self.connection._read_packet'
p406
g97
ssg76
I1302
sg77
(dp407
I1297
S'        if self.unbuffered_active:'
p408
sI1298
S'            self._finish_unbuffered_query()'
p409
sI1299
S''
sI1300
S'    def read(self):'
p410
sI1301
S'        try:'
p411
sI1302
S'            first_packet = self.connection._read_packet()'
p412
sI1303
S''
sI1304
S'            if first_packet.is_ok_packet():'
p413
sI1305
S'                self._read_ok_packet(first_packet)'
p414
sI1306
S'            elif first_packet.is_load_local_packet():'
p415
ssg89
S'(self=<gluon.contrib.pymysql.connections.MySQLResult object>)'
p416
sg91
S'read'
p417
sa(dp418
g68
S'/home/www-data/web2py/gluon/contrib/pymysql/connections.py'
p419
sg70
(dp420
S'packet'
p421
S'<gluon.contrib.pymysql.connections.MysqlPacket object>'
p422
sS'packet.check_error'
p423
S'<bound method MysqlPacket.check_error of <gluon.contrib.pymysql.connections.MysqlPacket object>>'
p424
ssg76
I981
sg77
(dp425
I976
S'                continue'
p426
sI977
S'            if bytes_to_read < MAX_PACKET_LEN:'
p427
sI978
S'                break'
p428
sI979
S''
sI980
S'        packet = packet_type(buff, self.encoding)'
p429
sI981
S'        packet.check_error()'
p430
sI982
S'        return packet'
p431
sI983
S''
sI984
S'    def _read_bytes(self, num_bytes):'
p432
sI985
S'        self._sock.settimeout(self._read_timeout)'
p433
ssg89
S"(self=<gluon.contrib.pymysql.connections.Connection object>, packet_type=<class 'gluon.contrib.pymysql.connections.MysqlPacket'>)"
p434
sg91
S'_read_packet'
p435
sa(dp436
g68
S'/home/www-data/web2py/gluon/contrib/pymysql/connections.py'
p437
sg70
(dp438
S'self._data'
p439
S'"\\xff\\x1a\\x04#42S01Table \'auth_user\' already exists"'
p440
sS'self'
p441
S'<gluon.contrib.pymysql.connections.MysqlPacket object>'
p442
sS'global err'
p443
S"<module 'gluon.contrib.pymysql.err' from '/home/www-data/web2py/gluon/contrib/pymysql/err.pyc'>"
p444
sS'err.raise_mysql_exception'
p445
S'<function raise_mysql_exception>'
p446
ssg76
I393
sg77
(dp447
I388
S'        if self.is_error_packet():'
p448
sI389
S'            self.rewind()'
p449
sI390
S'            self.advance(1)  # field_count == error (we already know that)'
p450
sI391
S'            errno = self.read_uint16()'
p451
sI392
S'            if DEBUG: print("errno =", errno)'
p452
sI393
S'            err.raise_mysql_exception(self._data)'
p453
sI394
S''
sI395
S'    def dump(self):'
p454
sI396
S'        dump_packet(self._data)'
p455
sI397
S''
ssg89
S'(self=<gluon.contrib.pymysql.connections.MysqlPacket object>)'
p456
sg91
S'check_error'
p457
sa(dp458
g68
S'/home/www-data/web2py/gluon/contrib/pymysql/err.py'
p459
sg70
(dp460
S'errorclass'
p461
S"<class 'gluon.contrib.pymysql.err.InternalError'>"
p462
sS'errno'
p463
S'1050'
p464
sS'errval'
p465
S'u"Table \'auth_user\' already exists"'
p466
ssg76
I107
sg77
(dp467
I98
S'def raise_mysql_exception(data):'
p468
sI99
S"    errno = struct.unpack('<h', data[1:3])[0]"
p469
sI100
S'    is_41 = data[3:4] == b"#"'
p470
sI101
S'    if is_41:'
p471
sI102
S'        # client protocol 4.1'
p472
sI103
S"        errval = data[9:].decode('utf-8', 'replace')"
p473
sI104
S'    else:'
p474
sI105
S"        errval = data[3:].decode('utf-8', 'replace')"
p475
sI106
S'    errorclass = error_map.get(errno, InternalError)'
p476
sI107
S'    raise errorclass(errno, errval)'
p477
ssg89
S'(data="\\xff\\x1a\\x04#42S01Table \'auth_user\' already exists")'
p478
sg91
S'raise_mysql_exception'
p479
sasS'pyver'
p480
S'Python 2.7.17: /usr/bin/python (prefix: /usr)'
p481
sS'session'
p482
g63
(S's\x1a\x00\x00\x00<div><table></table></div>'
tRp483
sS'etype'
p484
S"<class 'gluon.contrib.pymysql.err.InternalError'>"
p485
sS'date'
p486
S'Sat Oct 24 10:19:06 2020'
p487
sS'response'
p488
g63
(S's\xb5\x16\x00\x00<div><table><tr><td style="font-weight:bold;vertical-align:top;">body</td><td style="vertical-align:top;">:</td><td><div>&lt;cStringIO.StringO object at 0x7f570970be30&gt;</div></td></tr><tr><td style="font-weight:bold;vertical-align:top;">cookies</td><td style="vertical-align:top;">:</td><td><div><table><tr><td style="font-weight:bold;vertical-align:top;">session_id_ivar</td><td style="vertical-align:top;">:</td><td><div>95.255.220.24-515f381e-c2c2-46d4-b4a3-055889050d76<table><tr><td style="font-weight:bold;vertical-align:top;">comment</td><td style="vertical-align:top;">:</td><td><div></div></td></tr><tr><td style="font-weight:bold;vertical-align:top;">domain</td><td style="vertical-align:top;">:</td><td><div></div></td></tr><tr><td style="font-weight:bold;vertical-align:top;">expires</td><td style="vertical-align:top;">:</td><td><div></div></td></tr><tr><td style="font-weight:bold;vertical-align:top;">httponly</td><td style="vertical-align:top;">:</td><td><div></div></td></tr><tr><td style="font-weight:bold;vertical-align:top;">max-age</td><td style="vertical-align:top;">:</td><td><div></div></td></tr><tr><td style="font-weight:bold;vertical-align:top;">path</td><td style="vertical-align:top;">:</td><td><div>/</div></td></tr><tr><td style="font-weight:bold;vertical-align:top;">samesite</td><td style="vertical-align:top;">:</td><td><div></div></td></tr><tr><td style="font-weight:bold;vertical-align:top;">secure</td><td style="vertical-align:top;">:</td><td><div></div></td></tr><tr><td style="font-weight:bold;vertical-align:top;">version</td><td style="vertical-align:top;">:</td><td><div></div></td></tr></table></div></td></tr></table></div></td></tr><tr><td style="font-weight:bold;vertical-align:top;">delimiters</td><td style="vertical-align:top;">:</td><td><div><table><tr><td><div>{{</div></td></tr><tr><td><div>}}</div></td></tr></table></div></td></tr><tr><td style="font-weight:bold;vertical-align:top;">files</td><td style="vertical-align:top;">:</td><td><div><table></table></div></td></tr><tr><td style="font-weight:bold;vertical-align:top;">flash</td><td style="vertical-align:top;">:</td><td><div></div></td></tr><tr><td style="font-weight:bold;vertical-align:top;">form_label_separator</td><td style="vertical-align:top;">:</td><td><div></div></td></tr><tr><td style="font-weight:bold;vertical-align:top;">formstyle</td><td style="vertical-align:top;">:</td><td><div>bootstrap4_inline</div></td></tr><tr><td style="font-weight:bold;vertical-align:top;">generic_patterns</td><td style="vertical-align:top;">:</td><td><div><table><tr><td><div>*</div></td></tr></table></div></td></tr><tr><td style="font-weight:bold;vertical-align:top;">headers</td><td style="vertical-align:top;">:</td><td><div><table><tr><td style="font-weight:bold;vertical-align:top;">X-Powered-By</td><td style="vertical-align:top;">:</td><td><div>web2py</div></td></tr></table></div></td></tr><tr><td style="font-weight:bold;vertical-align:top;">menu</td><td style="vertical-align:top;">:</td><td><div><table></table></div></td></tr><tr><td style="font-weight:bold;vertical-align:top;">meta</td><td style="vertical-align:top;">:</td><td><div><table></table></div></td></tr><tr><td style="font-weight:bold;vertical-align:top;">models_to_run</td><td style="vertical-align:top;">:</td><td><div><table><tr><td><div>^\\w+\\.py$</div></td></tr><tr><td><div>^appadmin/\\w+\\.py$</div></td></tr><tr><td><div>^appadmin/hooks/\\w+\\.py$</div></td></tr></table></div></td></tr><tr><td style="font-weight:bold;vertical-align:top;">postprocessing</td><td style="vertical-align:top;">:</td><td><div><table></table></div></td></tr><tr><td style="font-weight:bold;vertical-align:top;">session_client</td><td style="vertical-align:top;">:</td><td><div>95.255.220.24</div></td></tr><tr><td style="font-weight:bold;vertical-align:top;">session_cookie_compression_level</td><td style="vertical-align:top;">:</td><td><div>None</div></td></tr><tr><td style="font-weight:bold;vertical-align:top;">session_cookie_expires</td><td style="vertical-align:top;">:</td><td><div>None</div></td></tr><tr><td style="font-weight:bold;vertical-align:top;">session_data_name</td><td style="vertical-align:top;">:</td><td><div>session_data_ivar</div></td></tr><tr><td style="font-weight:bold;vertical-align:top;">session_file</td><td style="vertical-align:top;">:</td><td><div>None</div></td></tr><tr><td style="font-weight:bold;vertical-align:top;">session_filename</td><td style="vertical-align:top;">:</td><td><div>/home/www-data/web2py/applications/iVar/sessions/95.255.220.24-515f381e-c2c2-46d4-b4a3-055889050d76</div></td></tr><tr><td style="font-weight:bold;vertical-align:top;">session_hash</td><td style="vertical-align:top;">:</td><td><div>c0762cbf4baf7f9af97c051e7fcb8083</div></td></tr><tr><td style="font-weight:bold;vertical-align:top;">session_id</td><td style="vertical-align:top;">:</td><td><div>95.255.220.24-515f381e-c2c2-46d4-b4a3-055889050d76</div></td></tr><tr><td style="font-weight:bold;vertical-align:top;">session_id_name</td><td style="vertical-align:top;">:</td><td><div>session_id_ivar</div></td></tr><tr><td style="font-weight:bold;vertical-align:top;">session_masterapp</td><td style="vertical-align:top;">:</td><td><div>iVar</div></td></tr><tr><td style="font-weight:bold;vertical-align:top;">session_new</td><td style="vertical-align:top;">:</td><td><div>True</div></td></tr><tr><td style="font-weight:bold;vertical-align:top;">session_storage_type</td><td style="vertical-align:top;">:</td><td><div>file</div></td></tr><tr><td style="font-weight:bold;vertical-align:top;">status</td><td style="vertical-align:top;">:</td><td><div>200</div></td></tr><tr><td style="font-weight:bold;vertical-align:top;">view</td><td style="vertical-align:top;">:</td><td><div>appadmin/hooks.html</div></td></tr></table></div>'
tRp489
sS'locals'
p490
(dp491
S'errorclass'
p492
S"<class 'gluon.contrib.pymysql.err.InternalError'>"
p493
sS'errno'
p494
S'1050'
p495
sS'is_41'
p496
g121
sS'errval'
p497
S'u"Table \'auth_user\' already exists"'
p498
sS'data'
p499
S'"\\xff\\x1a\\x04#42S01Table \'auth_user\' already exists"'
p500
sssS'traceback'
p501
S'Traceback (most recent call last):\n  File "/home/www-data/web2py/gluon/restricted.py", line 219, in restricted\n    exec(ccode, environment)\n  File "/home/www-data/web2py/applications/iVar/models/db.py", line 120, in <module>\n    auth.define_tables(username=False, signature=False)\n  File "/home/www-data/web2py/gluon/tools.py", line 2092, in define_tables\n    super(Auth, self).define_tables(username, signature, migrate, fake_migrate)._table_signature_list\n  File "/home/www-data/web2py/gluon/authapi.py", line 350, in define_tables\n    format=\'%(first_name)s %(last_name)s (%(id)s)\'))\n  File "/home/www-data/web2py/gluon/packages/dal/pydal/base.py", line 592, in define_table\n    table = self.lazy_define_table(tablename, *fields, **kwargs)\n  File "/home/www-data/web2py/gluon/packages/dal/pydal/base.py", line 626, in lazy_define_table\n    polymodel=polymodel)\n  File "/home/www-data/web2py/gluon/packages/dal/pydal/adapters/base.py", line 798, in create_table\n    return self.migrator.create_table(*args, **kwargs)\n  File "/home/www-data/web2py/gluon/packages/dal/pydal/migrator.py", line 281, in create_table\n    self.adapter.create_sequence_and_triggers(query, table)\n  File "/home/www-data/web2py/gluon/packages/dal/pydal/adapters/base.py", line 881, in create_sequence_and_triggers\n    self.execute(query)\n  File "/home/www-data/web2py/gluon/packages/dal/pydal/adapters/__init__.py", line 67, in wrap\n    return f(*args, **kwargs)\n  File "/home/www-data/web2py/gluon/packages/dal/pydal/adapters/base.py", line 413, in execute\n    rv = self.cursor.execute(command, *args[1:], **kwargs)\n  File "/home/www-data/web2py/gluon/contrib/pymysql/cursors.py", line 166, in execute\n    result = self._query(query)\n  File "/home/www-data/web2py/gluon/contrib/pymysql/cursors.py", line 322, in _query\n    conn.query(q)\n  File "/home/www-data/web2py/gluon/contrib/pymysql/connections.py", line 835, in query\n    self._affected_rows = self._read_query_result(unbuffered=unbuffered)\n  File "/home/www-data/web2py/gluon/contrib/pymysql/connections.py", line 1019, in _read_query_result\n    result.read()\n  File "/home/www-data/web2py/gluon/contrib/pymysql/connections.py", line 1302, in read\n    first_packet = self.connection._read_packet()\n  File "/home/www-data/web2py/gluon/contrib/pymysql/connections.py", line 981, in _read_packet\n    packet.check_error()\n  File "/home/www-data/web2py/gluon/contrib/pymysql/connections.py", line 393, in check_error\n    err.raise_mysql_exception(self._data)\n  File "/home/www-data/web2py/gluon/contrib/pymysql/err.py", line 107, in raise_mysql_exception\n    raise errorclass(errno, errval)\nInternalError: (1050, u"Table \'auth_user\' already exists")\n'
p502
s.