(dp1
S'output'
p2
S"<class 'bdb.BdbQuit'> "
p3
sS'layer'
p4
S'/home/www-data/web2py/applications/iVar/controllers/annotation.py'
p5
sS'code'
p6
S'<code object <module> at 0x7f3f78620630, file "/home/www-data/web2py/applications/iVar/controllers/annotation.py", line 21>'
p7
sS'snapshot'
p8
(dp9
S'exception'
p10
(dp11
S'__module__'
p12
S"'bdb'"
p13
sS'__getslice__'
p14
S"<method-wrapper '__getslice__' of BdbQuit object>"
p15
sS'__str__'
p16
S"<method-wrapper '__str__' of BdbQuit object>"
p17
sS'__reduce__'
p18
S'<built-in method __reduce__ of BdbQuit object>'
p19
sS'__dict__'
p20
S'{}'
p21
sS'__sizeof__'
p22
S'<built-in method __sizeof__ of BdbQuit object>'
p23
sS'__weakref__'
p24
S'None'
p25
sS'message'
p26
S"''"
p27
sS'__init__'
p28
S"<method-wrapper '__init__' of BdbQuit object>"
p29
sS'__setattr__'
p30
S"<method-wrapper '__setattr__' of BdbQuit object>"
p31
sS'__reduce_ex__'
p32
S'<built-in method __reduce_ex__ of BdbQuit object>'
p33
sS'__new__'
p34
S'<built-in method __new__ of type object>'
p35
sS'__format__'
p36
S'<built-in method __format__ of BdbQuit object>'
p37
sS'__class__'
p38
S"<class 'bdb.BdbQuit'>"
p39
sS'__doc__'
p40
S"'Exception to give up completely'"
p41
sS'__getitem__'
p42
S"<method-wrapper '__getitem__' of BdbQuit object>"
p43
sS'__setstate__'
p44
S'<built-in method __setstate__ of BdbQuit object>'
p45
sS'__getattribute__'
p46
S"<method-wrapper '__getattribute__' of BdbQuit object>"
p47
sS'args'
p48
S'()'
p49
sS'__subclasshook__'
p50
S'<built-in method __subclasshook__ of type object>'
p51
sS'__unicode__'
p52
S'<built-in method __unicode__ of BdbQuit object>'
p53
sS'__delattr__'
p54
S"<method-wrapper '__delattr__' of BdbQuit object>"
p55
sS'__repr__'
p56
S"<method-wrapper '__repr__' of BdbQuit object>"
p57
sS'__hash__'
p58
S"<method-wrapper '__hash__' of BdbQuit object>"
p59
ssS'evalue'
p60
S''
sS'request'
p61
cgluon.html
XML_unpickle
p62
(S's\xbdj\x00\x00<div><table><tr><td style="font-weight:bold;vertical-align:top;">ajax</td><td style="vertical-align:top;">:</td><td><div>False</div></td></tr><tr><td style="font-weight:bold;vertical-align:top;">application</td><td style="vertical-align:top;">:</td><td><div>iVar</div></td></tr><tr><td style="font-weight:bold;vertical-align:top;">args</td><td style="vertical-align:top;">:</td><td><div><table><tr><td><div>1246</div></td></tr></table></div></td></tr><tr><td style="font-weight:bold;vertical-align:top;">cid</td><td style="vertical-align:top;">:</td><td><div>None</div></td></tr><tr><td style="font-weight:bold;vertical-align:top;">client</td><td style="vertical-align:top;">:</td><td><div>95.234.45.88</div></td></tr><tr><td style="font-weight:bold;vertical-align:top;">controller</td><td style="vertical-align:top;">:</td><td><div>annotation</div></td></tr><tr><td style="font-weight:bold;vertical-align:top;">cookies</td><td style="vertical-align:top;">:</td><td><div><table><tr><td style="font-weight:bold;vertical-align:top;">session_id_admin</td><td style="vertical-align:top;">:</td><td><div>95.234.45.88-d885d91e-5b62-4328-8892-2842dd35b99f<table><tr><td style="font-weight:bold;vertical-align:top;">comment</td><td style="vertical-align:top;">:</td><td><div></div></td></tr><tr><td style="font-weight:bold;vertical-align:top;">domain</td><td style="vertical-align:top;">:</td><td><div></div></td></tr><tr><td style="font-weight:bold;vertical-align:top;">expires</td><td style="vertical-align:top;">:</td><td><div></div></td></tr><tr><td style="font-weight:bold;vertical-align:top;">httponly</td><td style="vertical-align:top;">:</td><td><div></div></td></tr><tr><td style="font-weight:bold;vertical-align:top;">max-age</td><td style="vertical-align:top;">:</td><td><div></div></td></tr><tr><td style="font-weight:bold;vertical-align:top;">path</td><td style="vertical-align:top;">:</td><td><div></div></td></tr><tr><td style="font-weight:bold;vertical-align:top;">samesite</td><td style="vertical-align:top;">:</td><td><div></div></td></tr><tr><td style="font-weight:bold;vertical-align:top;">secure</td><td style="vertical-align:top;">:</td><td><div></div></td></tr><tr><td style="font-weight:bold;vertical-align:top;">version</td><td style="vertical-align:top;">:</td><td><div></div></td></tr></table></div></td></tr><tr><td style="font-weight:bold;vertical-align:top;">session_id_ivar</td><td style="vertical-align:top;">:</td><td><div>95.234.45.88-d53e29bc-da1d-4c1a-90ea-f6ea7a4976f5<table><tr><td style="font-weight:bold;vertical-align:top;">comment</td><td style="vertical-align:top;">:</td><td><div></div></td></tr><tr><td style="font-weight:bold;vertical-align:top;">domain</td><td style="vertical-align:top;">:</td><td><div></div></td></tr><tr><td style="font-weight:bold;vertical-align:top;">expires</td><td style="vertical-align:top;">:</td><td><div></div></td></tr><tr><td style="font-weight:bold;vertical-align:top;">httponly</td><td style="vertical-align:top;">:</td><td><div></div></td></tr><tr><td style="font-weight:bold;vertical-align:top;">max-age</td><td style="vertical-align:top;">:</td><td><div></div></td></tr><tr><td style="font-weight:bold;vertical-align:top;">path</td><td style="vertical-align:top;">:</td><td><div></div></td></tr><tr><td style="font-weight:bold;vertical-align:top;">samesite</td><td style="vertical-align:top;">:</td><td><div></div></td></tr><tr><td style="font-weight:bold;vertical-align:top;">secure</td><td style="vertical-align:top;">:</td><td><div></div></td></tr><tr><td style="font-weight:bold;vertical-align:top;">version</td><td style="vertical-align:top;">:</td><td><div></div></td></tr></table></div></td></tr><tr><td style="font-weight:bold;vertical-align:top;">session_id_welcome</td><td style="vertical-align:top;">:</td><td><div>95.234.45.88-e0101cdb-5d8b-446a-9e43-5c7ff9539ded<table><tr><td style="font-weight:bold;vertical-align:top;">comment</td><td style="vertical-align:top;">:</td><td><div></div></td></tr><tr><td style="font-weight:bold;vertical-align:top;">domain</td><td style="vertical-align:top;">:</td><td><div></div></td></tr><tr><td style="font-weight:bold;vertical-align:top;">expires</td><td style="vertical-align:top;">:</td><td><div></div></td></tr><tr><td style="font-weight:bold;vertical-align:top;">httponly</td><td style="vertical-align:top;">:</td><td><div></div></td></tr><tr><td style="font-weight:bold;vertical-align:top;">max-age</td><td style="vertical-align:top;">:</td><td><div></div></td></tr><tr><td style="font-weight:bold;vertical-align:top;">path</td><td style="vertical-align:top;">:</td><td><div></div></td></tr><tr><td style="font-weight:bold;vertical-align:top;">samesite</td><td style="vertical-align:top;">:</td><td><div></div></td></tr><tr><td style="font-weight:bold;vertical-align:top;">secure</td><td style="vertical-align:top;">:</td><td><div></div></td></tr><tr><td style="font-weight:bold;vertical-align:top;">version</td><td style="vertical-align:top;">:</td><td><div></div></td></tr></table></div></td></tr></table></div></td></tr><tr><td style="font-weight:bold;vertical-align:top;">env</td><td style="vertical-align:top;">:</td><td><div><table><tr><td style="font-weight:bold;vertical-align:top;">HTTPS</td><td style="vertical-align:top;">:</td><td><div>on</div></td></tr><tr><td style="font-weight:bold;vertical-align:top;">HTTP_ACCEPT</td><td style="vertical-align:top;">:</td><td><div>text/html,application/xhtml+xml,application/xml;q=0.9,image/avif,image/webp,image/apng,*/*;q=0.8,application/signed-exchange;v=b3;q=0.9</div></td></tr><tr><td style="font-weight:bold;vertical-align:top;">HTTP_ACCEPT_ENCODING</td><td style="vertical-align:top;">:</td><td><div>gzip, deflate, br</div></td></tr><tr><td style="font-weight:bold;vertical-align:top;">HTTP_ACCEPT_LANGUAGE</td><td style="vertical-align:top;">:</td><td><div>it-IT,it;q=0.9,en-US;q=0.8,en;q=0.7</div></td></tr><tr><td style="font-weight:bold;vertical-align:top;">HTTP_CONNECTION</td><td style="vertical-align:top;">:</td><td><div>keep-alive</div></td></tr><tr><td style="font-weight:bold;vertical-align:top;">HTTP_COOKIE</td><td style="vertical-align:top;">:</td><td><div>session_id_welcome=95.234.45.88-e0101cdb-5d8b-446a-9e43-5c7ff9539ded; session_id_admin=95.234.45.88-d885d91e-5b62-4328-8892-2842dd35b99f; session_id_ivar=95.234.45.88-d53e29bc-da1d-4c1a-90ea-f6ea7a4976f5</div></td></tr><tr><td style="font-weight:bold;vertical-align:top;">HTTP_HOST</td><td style="vertical-align:top;">:</td><td><div>web2py.nabla2.it:9000</div></td></tr><tr><td style="font-weight:bold;vertical-align:top;">HTTP_REFERER</td><td style="vertical-align:top;">:</td><td><div>https://web2py.nabla2.it:9000/iVar/annotation/annotation_file_list</div></td></tr><tr><td style="font-weight:bold;vertical-align:top;">HTTP_SEC_CH_UA</td><td style="vertical-align:top;">:</td><td><div>&quot;Google Chrome&quot;;v=&quot;89&quot;, &quot;Chromium&quot;;v=&quot;89&quot;, &quot;;Not A Brand&quot;;v=&quot;99&quot;</div></td></tr><tr><td style="font-weight:bold;vertical-align:top;">HTTP_SEC_CH_UA_MOBILE</td><td style="vertical-align:top;">:</td><td><div>?0</div></td></tr><tr><td style="font-weight:bold;vertical-align:top;">HTTP_SEC_FETCH_DEST</td><td style="vertical-align:top;">:</td><td><div>document</div></td></tr><tr><td style="font-weight:bold;vertical-align:top;">HTTP_SEC_FETCH_MODE</td><td style="vertical-align:top;">:</td><td><div>navigate</div></td></tr><tr><td style="font-weight:bold;vertical-align:top;">HTTP_SEC_FETCH_SITE</td><td style="vertical-align:top;">:</td><td><div>same-origin</div></td></tr><tr><td style="font-weight:bold;vertical-align:top;">HTTP_SEC_FETCH_USER</td><td style="vertical-align:top;">:</td><td><div>?1</div></td></tr><tr><td style="font-weight:bold;vertical-align:top;">HTTP_UPGRADE_INSECURE_REQUESTS</td><td style="vertical-align:top;">:</td><td><div>1</div></td></tr><tr><td style="font-weight:bold;vertical-align:top;">HTTP_USER_AGENT</td><td style="vertical-align:top;">:</td><td><div>Mozilla/5.0 (Windows NT 10.0; Win64; x64) AppleWebKit/537.36 (KHTML, like Gecko) Chrome/89.0.4389.114 Safari/537.36</div></td></tr><tr><td style="font-weight:bold;vertical-align:top;">PATH_INFO</td><td style="vertical-align:top;">:</td><td><div>/iVar/annotation/annotation_elab/1246</div></td></tr><tr><td style="font-weight:bold;vertical-align:top;">QUERY_STRING</td><td style="vertical-align:top;">:</td><td><div>form_head_indietro=https%3A%2F%2Fweb2py.nabla2.it%3A9000%2FiVar%2Fannotation%2Fannotation_file_list</div></td></tr><tr><td style="font-weight:bold;vertical-align:top;">REMOTE_ADDR</td><td style="vertical-align:top;">:</td><td><div>95.234.45.88</div></td></tr><tr><td style="font-weight:bold;vertical-align:top;">REMOTE_PORT</td><td style="vertical-align:top;">:</td><td><div>57857</div></td></tr><tr><td style="font-weight:bold;vertical-align:top;">REQUEST_METHOD</td><td style="vertical-align:top;">:</td><td><div>GET</div></td></tr><tr><td style="font-weight:bold;vertical-align:top;">SCRIPT_NAME</td><td style="vertical-align:top;">:</td><td><div></div></td></tr><tr><td style="font-weight:bold;vertical-align:top;">SERVER_NAME</td><td style="vertical-align:top;">:</td><td><div>minezzi</div></td></tr><tr><td style="font-weight:bold;vertical-align:top;">SERVER_PORT</td><td style="vertical-align:top;">:</td><td><div>9000</div></td></tr><tr><td style="font-weight:bold;vertical-align:top;">SERVER_PROTOCOL</td><td style="vertical-align:top;">:</td><td><div>HTTP/1.1</div></td></tr><tr><td style="font-weight:bold;vertical-align:top;">SERVER_SOFTWARE</td><td style="vertical-align:top;">:</td><td><div>Rocket 1.2.6</div></td></tr><tr><td style="font-weight:bold;vertical-align:top;">SSL_CLIENT_RAW_CERT</td><td style="vertical-align:top;">:</td><td><div>None</div></td></tr><tr><td style="font-weight:bold;vertical-align:top;">app_folders</td><td style="vertical-align:top;">:</td><td><div>set([&#x27;/home/www-data/web2py/applications/iVar&#x27;, &#x27;/home/www-data/web2py/applications/admin&#x27;])</div></td></tr><tr><td style="font-weight:bold;vertical-align:top;">applications_parent</td><td style="vertical-align:top;">:</td><td><div>/home/www-data/web2py</div></td></tr><tr><td style="font-weight:bold;vertical-align:top;">cmd_args</td><td style="vertical-align:top;">:</td><td><div><table></table></div></td></tr><tr><td style="font-weight:bold;vertical-align:top;">cmd_options</td><td style="vertical-align:top;">:</td><td><div>&lt;Values at 0x7f3f81376af0: {&#x27;verbose&#x27;: False, &#x27;ip&#x27;: &#x27;0.0.0.0&#x27;, &#x27;debuglevel&#x27;: 30, &#x27;with_scheduler&#x27;: False, &#x27;shutdown_timeout&#x27;: 5, &#x27;taskbar&#x27;: False, &#x27;with_coverage&#x27;: False, &#x27;pid_filename&#x27;: &#x27;httpserver.pid&#x27;, &#x27;maxthreads&#x27;: None, &#x27;softcron&#x27;: False, &#x27;server_name&#x27;: &#x27;minezzi&#x27;, &#x27;bpython&#x27;: False, &#x27;nogui&#x27;: False, &#x27;port&#x27;: 9000, &#x27;print_errors&#x27;: False, &#x27;extcron&#x27;: False, &#x27;runcron&#x27;: False, &#x27;run_system_tests&#x27;: False, &#x27;test&#x27;: None, &#x27;folder&#x27;: &#x27;/home/www-data/web2py&#x27;, &#x27;config&#x27;: &#x27;&#x27;, &#x27;minthreads&#x27;: None, &#x27;shell&#x27;: None, &#x27;run&#x27;: &#x27;&#x27;, &#x27;log_filename&#x27;: &#x27;httpserver.log&#x27;, &#x27;profiler_dir&#x27;: None, &#x27;args&#x27;: [], &#x27;socket_timeout&#x27;: 5, &#x27;ssl_ca_certificate&#x27;: None, &#x27;scheduler&#x27;: None, &#x27;interfaces&#x27;: None, &#x27;ssl_private_key&#x27;: &#x27;/etc/letsencrypt/live/web2py.nabla2.it/privkey.pem&#x27;, &#x27;gae&#x27;: None, &#x27;password&#x27;: &#x27;******&#x27;, &#x27;request_queue_size&#x27;: 5, &#x27;ssl_certificate&#x27;: &#x27;/etc/letsencrypt/live/web2py.nabla2.it/cert.pem&#x27;, &#x27;cronjob&#x27;: False, &#x27;numthreads&#x27;: None, &#x27;quiet&#x27;: False, &#x27;import_models&#x27;: False, &#x27;timeout&#x27;: 10, &#x27;plain&#x27;: False, &#x27;nobanner&#x27;: False}&gt;</div></td></tr><tr><td style="font-weight:bold;vertical-align:top;">db_sessions</td><td style="vertical-align:top;">:</td><td><div>set([])</div></td></tr><tr><td style="font-weight:bold;vertical-align:top;">debugging</td><td style="vertical-align:top;">:</td><td><div>True</div></td></tr><tr><td style="font-weight:bold;vertical-align:top;">gluon_parent</td><td style="vertical-align:top;">:</td><td><div>/home/www-data/web2py</div></td></tr><tr><td style="font-weight:bold;vertical-align:top;">http_accept</td><td style="vertical-align:top;">:</td><td><div>text/html,application/xhtml+xml,application/xml;q=0.9,image/avif,image/webp,image/apng,*/*;q=0.8,application/signed-exchange;v=b3;q=0.9</div></td></tr><tr><td style="font-weight:bold;vertical-align:top;">http_accept_encoding</td><td style="vertical-align:top;">:</td><td><div>gzip, deflate, br</div></td></tr><tr><td style="font-weight:bold;vertical-align:top;">http_accept_language</td><td style="vertical-align:top;">:</td><td><div>it-IT,it;q=0.9,en-US;q=0.8,en;q=0.7</div></td></tr><tr><td style="font-weight:bold;vertical-align:top;">http_connection</td><td style="vertical-align:top;">:</td><td><div>keep-alive</div></td></tr><tr><td style="font-weight:bold;vertical-align:top;">http_cookie</td><td style="vertical-align:top;">:</td><td><div>session_id_welcome=95.234.45.88-e0101cdb-5d8b-446a-9e43-5c7ff9539ded; session_id_admin=95.234.45.88-d885d91e-5b62-4328-8892-2842dd35b99f; session_id_ivar=95.234.45.88-d53e29bc-da1d-4c1a-90ea-f6ea7a4976f5</div></td></tr><tr><td style="font-weight:bold;vertical-align:top;">http_host</td><td style="vertical-align:top;">:</td><td><div>web2py.nabla2.it:9000</div></td></tr><tr><td style="font-weight:bold;vertical-align:top;">http_referer</td><td style="vertical-align:top;">:</td><td><div>https://web2py.nabla2.it:9000/iVar/annotation/annotation_file_list</div></td></tr><tr><td style="font-weight:bold;vertical-align:top;">http_sec_ch_ua</td><td style="vertical-align:top;">:</td><td><div>&quot;Google Chrome&quot;;v=&quot;89&quot;, &quot;Chromium&quot;;v=&quot;89&quot;, &quot;;Not A Brand&quot;;v=&quot;99&quot;</div></td></tr><tr><td style="font-weight:bold;vertical-align:top;">http_sec_ch_ua_mobile</td><td style="vertical-align:top;">:</td><td><div>?0</div></td></tr><tr><td style="font-weight:bold;vertical-align:top;">http_sec_fetch_dest</td><td style="vertical-align:top;">:</td><td><div>document</div></td></tr><tr><td style="font-weight:bold;vertical-align:top;">http_sec_fetch_mode</td><td style="vertical-align:top;">:</td><td><div>navigate</div></td></tr><tr><td style="font-weight:bold;vertical-align:top;">http_sec_fetch_site</td><td style="vertical-align:top;">:</td><td><div>same-origin</div></td></tr><tr><td style="font-weight:bold;vertical-align:top;">http_sec_fetch_user</td><td style="vertical-align:top;">:</td><td><div>?1</div></td></tr><tr><td style="font-weight:bold;vertical-align:top;">http_upgrade_insecure_requests</td><td style="vertical-align:top;">:</td><td><div>1</div></td></tr><tr><td style="font-weight:bold;vertical-align:top;">http_user_agent</td><td style="vertical-align:top;">:</td><td><div>Mozilla/5.0 (Windows NT 10.0; Win64; x64) AppleWebKit/537.36 (KHTML, like Gecko) Chrome/89.0.4389.114 Safari/537.36</div></td></tr><tr><td style="font-weight:bold;vertical-align:top;">https</td><td style="vertical-align:top;">:</td><td><div>on</div></td></tr><tr><td style="font-weight:bold;vertical-align:top;">is_jython</td><td style="vertical-align:top;">:</td><td><div>False</div></td></tr><tr><td style="font-weight:bold;vertical-align:top;">is_py2</td><td style="vertical-align:top;">:</td><td><div>True</div></td></tr><tr><td style="font-weight:bold;vertical-align:top;">is_pypy</td><td style="vertical-align:top;">:</td><td><div>False</div></td></tr><tr><td style="font-weight:bold;vertical-align:top;">is_source</td><td style="vertical-align:top;">:</td><td><div>True</div></td></tr><tr><td style="font-weight:bold;vertical-align:top;">local_hosts</td><td style="vertical-align:top;">:</td><td><div><table><tr><td><div>::1</div></td></tr><tr><td><div>127.0.1.1</div></td></tr><tr><td><div>::ffff:127.0.0.1</div></td></tr><tr><td><div>127.0.0.1</div></td></tr><tr><td><div>minezzi</div></td></tr></table></div></td></tr><tr><td style="font-weight:bold;vertical-align:top;">path_info</td><td style="vertical-align:top;">:</td><td><div>/iVar/annotation/annotation_elab/1246</div></td></tr><tr><td style="font-weight:bold;vertical-align:top;">query_string</td><td style="vertical-align:top;">:</td><td><div>form_head_indietro=https%3A%2F%2Fweb2py.nabla2.it%3A9000%2FiVar%2Fannotation%2Fannotation_file_list</div></td></tr><tr><td style="font-weight:bold;vertical-align:top;">remote_addr</td><td style="vertical-align:top;">:</td><td><div>95.234.45.88</div></td></tr><tr><td style="font-weight:bold;vertical-align:top;">remote_port</td><td style="vertical-align:top;">:</td><td><div>57857</div></td></tr><tr><td style="font-weight:bold;vertical-align:top;">request_method</td><td style="vertical-align:top;">:</td><td><div>GET</div></td></tr><tr><td style="font-weight:bold;vertical-align:top;">request_uri</td><td style="vertical-align:top;">:</td><td><div>/iVar/annotation/annotation_elab/1246?form_head_indietro=https%3A%2F%2Fweb2py.nabla2.it%3A9000%2FiVar%2Fannotation%2Fannotation_file_list</div></td></tr><tr><td style="font-weight:bold;vertical-align:top;">script_name</td><td style="vertical-align:top;">:</td><td><div></div></td></tr><tr><td style="font-weight:bold;vertical-align:top;">server_name</td><td style="vertical-align:top;">:</td><td><div>minezzi</div></td></tr><tr><td style="font-weight:bold;vertical-align:top;">server_port</td><td style="vertical-align:top;">:</td><td><div>9000</div></td></tr><tr><td style="font-weight:bold;vertical-align:top;">server_protocol</td><td style="vertical-align:top;">:</td><td><div>HTTP/1.1</div></td></tr><tr><td style="font-weight:bold;vertical-align:top;">server_software</td><td style="vertical-align:top;">:</td><td><div>Rocket 1.2.6</div></td></tr><tr><td style="font-weight:bold;vertical-align:top;">ssl_client_raw_cert</td><td style="vertical-align:top;">:</td><td><div>None</div></td></tr><tr><td style="font-weight:bold;vertical-align:top;">web2py_path</td><td style="vertical-align:top;">:</td><td><div>/home/www-data/web2py</div></td></tr><tr><td style="font-weight:bold;vertical-align:top;">web2py_version</td><td style="vertical-align:top;">:</td><td><div>2.18.5-stable+timestamp.2019.04.08.04.22.03</div></td></tr><tr><td style="font-weight:bold;vertical-align:top;">wsgi.errors</td><td style="vertical-align:top;">:</td><td><div>&lt;open file &#x27;&lt;stderr&gt;&#x27;, mode &#x27;w&#x27; at 0x7f3f88447270&gt;</div></td></tr><tr><td style="font-weight:bold;vertical-align:top;">wsgi.file_wrapper</td><td style="vertical-align:top;">:</td><td><div>&lt;class wsgiref.util.FileWrapper at 0x7f3f813b44b0&gt;</div></td></tr><tr><td style="font-weight:bold;vertical-align:top;">wsgi.input</td><td style="vertical-align:top;">:</td><td><div>&lt;socket._fileobject object at 0x7f3f54e5c0d0&gt;</div></td></tr><tr><td style="font-weight:bold;vertical-align:top;">wsgi.multiprocess</td><td style="vertical-align:top;">:</td><td><div>False</div></td></tr><tr><td style="font-weight:bold;vertical-align:top;">wsgi.multithread</td><td style="vertical-align:top;">:</td><td><div>True</div></td></tr><tr><td style="font-weight:bold;vertical-align:top;">wsgi.run_once</td><td style="vertical-align:top;">:</td><td><div>False</div></td></tr><tr><td style="font-weight:bold;vertical-align:top;">wsgi.url_scheme</td><td style="vertical-align:top;">:</td><td><div>https</div></td></tr><tr><td style="font-weight:bold;vertical-align:top;">wsgi.version</td><td style="vertical-align:top;">:</td><td><div><table><tr><td><div>1</div></td></tr><tr><td><div>0</div></td></tr></table></div></td></tr><tr><td style="font-weight:bold;vertical-align:top;">wsgi_errors</td><td style="vertical-align:top;">:</td><td><div>&lt;open file &#x27;&lt;stderr&gt;&#x27;, mode &#x27;w&#x27; at 0x7f3f88447270&gt;</div></td></tr><tr><td style="font-weight:bold;vertical-align:top;">wsgi_file_wrapper</td><td style="vertical-align:top;">:</td><td><div>&lt;class wsgiref.util.FileWrapper at 0x7f3f813b44b0&gt;</div></td></tr><tr><td style="font-weight:bold;vertical-align:top;">wsgi_input</td><td style="vertical-align:top;">:</td><td><div>&lt;socket._fileobject object at 0x7f3f54e5c0d0&gt;</div></td></tr><tr><td style="font-weight:bold;vertical-align:top;">wsgi_multiprocess</td><td style="vertical-align:top;">:</td><td><div>False</div></td></tr><tr><td style="font-weight:bold;vertical-align:top;">wsgi_multithread</td><td style="vertical-align:top;">:</td><td><div>True</div></td></tr><tr><td style="font-weight:bold;vertical-align:top;">wsgi_run_once</td><td style="vertical-align:top;">:</td><td><div>False</div></td></tr><tr><td style="font-weight:bold;vertical-align:top;">wsgi_url_scheme</td><td style="vertical-align:top;">:</td><td><div>https</div></td></tr><tr><td style="font-weight:bold;vertical-align:top;">wsgi_version</td><td style="vertical-align:top;">:</td><td><div><table><tr><td><div>1</div></td></tr><tr><td><div>0</div></td></tr></table></div></td></tr></table></div></td></tr><tr><td style="font-weight:bold;vertical-align:top;">extension</td><td style="vertical-align:top;">:</td><td><div>html</div></td></tr><tr><td style="font-weight:bold;vertical-align:top;">folder</td><td style="vertical-align:top;">:</td><td><div>/home/www-data/web2py/applications/iVar</div></td></tr><tr><td style="font-weight:bold;vertical-align:top;">function</td><td style="vertical-align:top;">:</td><td><div>annotation_elab</div></td></tr><tr><td style="font-weight:bold;vertical-align:top;">global_settings</td><td style="vertical-align:top;">:</td><td><div><table><tr><td style="font-weight:bold;vertical-align:top;">app_folders</td><td style="vertical-align:top;">:</td><td><div>set([&#x27;/home/www-data/web2py/applications/iVar&#x27;, &#x27;/home/www-data/web2py/applications/admin&#x27;])</div></td></tr><tr><td style="font-weight:bold;vertical-align:top;">applications_parent</td><td style="vertical-align:top;">:</td><td><div>/home/www-data/web2py</div></td></tr><tr><td style="font-weight:bold;vertical-align:top;">cmd_args</td><td style="vertical-align:top;">:</td><td><div><table></table></div></td></tr><tr><td style="font-weight:bold;vertical-align:top;">cmd_options</td><td style="vertical-align:top;">:</td><td><div>&lt;Values at 0x7f3f81376af0: {&#x27;verbose&#x27;: False, &#x27;ip&#x27;: &#x27;0.0.0.0&#x27;, &#x27;debuglevel&#x27;: 30, &#x27;with_scheduler&#x27;: False, &#x27;shutdown_timeout&#x27;: 5, &#x27;taskbar&#x27;: False, &#x27;with_coverage&#x27;: False, &#x27;pid_filename&#x27;: &#x27;httpserver.pid&#x27;, &#x27;maxthreads&#x27;: None, &#x27;softcron&#x27;: False, &#x27;server_name&#x27;: &#x27;minezzi&#x27;, &#x27;bpython&#x27;: False, &#x27;nogui&#x27;: False, &#x27;port&#x27;: 9000, &#x27;print_errors&#x27;: False, &#x27;extcron&#x27;: False, &#x27;runcron&#x27;: False, &#x27;run_system_tests&#x27;: False, &#x27;test&#x27;: None, &#x27;folder&#x27;: &#x27;/home/www-data/web2py&#x27;, &#x27;config&#x27;: &#x27;&#x27;, &#x27;minthreads&#x27;: None, &#x27;shell&#x27;: None, &#x27;run&#x27;: &#x27;&#x27;, &#x27;log_filename&#x27;: &#x27;httpserver.log&#x27;, &#x27;profiler_dir&#x27;: None, &#x27;args&#x27;: [], &#x27;socket_timeout&#x27;: 5, &#x27;ssl_ca_certificate&#x27;: None, &#x27;scheduler&#x27;: None, &#x27;interfaces&#x27;: None, &#x27;ssl_private_key&#x27;: &#x27;/etc/letsencrypt/live/web2py.nabla2.it/privkey.pem&#x27;, &#x27;gae&#x27;: None, &#x27;password&#x27;: &#x27;******&#x27;, &#x27;request_queue_size&#x27;: 5, &#x27;ssl_certificate&#x27;: &#x27;/etc/letsencrypt/live/web2py.nabla2.it/cert.pem&#x27;, &#x27;cronjob&#x27;: False, &#x27;numthreads&#x27;: None, &#x27;quiet&#x27;: False, &#x27;import_models&#x27;: False, &#x27;timeout&#x27;: 10, &#x27;plain&#x27;: False, &#x27;nobanner&#x27;: False}&gt;</div></td></tr><tr><td style="font-weight:bold;vertical-align:top;">db_sessions</td><td style="vertical-align:top;">:</td><td><div>set([])</div></td></tr><tr><td style="font-weight:bold;vertical-align:top;">debugging</td><td style="vertical-align:top;">:</td><td><div>True</div></td></tr><tr><td style="font-weight:bold;vertical-align:top;">gluon_parent</td><td style="vertical-align:top;">:</td><td><div>/home/www-data/web2py</div></td></tr><tr><td style="font-weight:bold;vertical-align:top;">is_jython</td><td style="vertical-align:top;">:</td><td><div>False</div></td></tr><tr><td style="font-weight:bold;vertical-align:top;">is_py2</td><td style="vertical-align:top;">:</td><td><div>True</div></td></tr><tr><td style="font-weight:bold;vertical-align:top;">is_pypy</td><td style="vertical-align:top;">:</td><td><div>False</div></td></tr><tr><td style="font-weight:bold;vertical-align:top;">is_source</td><td style="vertical-align:top;">:</td><td><div>True</div></td></tr><tr><td style="font-weight:bold;vertical-align:top;">local_hosts</td><td style="vertical-align:top;">:</td><td><div><table><tr><td><div>::1</div></td></tr><tr><td><div>127.0.1.1</div></td></tr><tr><td><div>::ffff:127.0.0.1</div></td></tr><tr><td><div>127.0.0.1</div></td></tr><tr><td><div>minezzi</div></td></tr></table></div></td></tr><tr><td style="font-weight:bold;vertical-align:top;">web2py_version</td><td style="vertical-align:top;">:</td><td><div>2.18.5-stable+timestamp.2019.04.08.04.22.03</div></td></tr></table></div></td></tr><tr><td style="font-weight:bold;vertical-align:top;">is_https</td><td style="vertical-align:top;">:</td><td><div>True</div></td></tr><tr><td style="font-weight:bold;vertical-align:top;">is_local</td><td style="vertical-align:top;">:</td><td><div>False</div></td></tr><tr><td style="font-weight:bold;vertical-align:top;">is_restful</td><td style="vertical-align:top;">:</td><td><div>False</div></td></tr><tr><td style="font-weight:bold;vertical-align:top;">is_scheduler</td><td style="vertical-align:top;">:</td><td><div>False</div></td></tr><tr><td style="font-weight:bold;vertical-align:top;">is_shell</td><td style="vertical-align:top;">:</td><td><div>False</div></td></tr><tr><td style="font-weight:bold;vertical-align:top;">method</td><td style="vertical-align:top;">:</td><td><div>GET</div></td></tr><tr><td style="font-weight:bold;vertical-align:top;">now</td><td style="vertical-align:top;">:</td><td><div>datetime.datetime(2021, 4, 10, 10, 12, 42, 910757)</div></td></tr><tr><td style="font-weight:bold;vertical-align:top;">raw_args</td><td style="vertical-align:top;">:</td><td><div>1246</div></td></tr><tr><td style="font-weight:bold;vertical-align:top;">raw_extension</td><td style="vertical-align:top;">:</td><td><div>None</div></td></tr><tr><td style="font-weight:bold;vertical-align:top;">url</td><td style="vertical-align:top;">:</td><td><div>/iVar/annotation/annotation_elab/1246</div></td></tr><tr><td style="font-weight:bold;vertical-align:top;">utcnow</td><td style="vertical-align:top;">:</td><td><div>datetime.datetime(2021, 4, 10, 8, 12, 42, 910784)</div></td></tr><tr><td style="font-weight:bold;vertical-align:top;">wsgi</td><td style="vertical-align:top;">:</td><td><div>&lt;gluon.main.LazyWSGI object at 0x7f3f78609210&gt;</div></td></tr></table></div>'
tRp63
sS'frames'
p64
(lp65
(dp66
S'file'
p67
S'/home/www-data/web2py/gluon/restricted.py'
p68
sS'dump'
p69
(dp70
S'environment'
p71
S"{'A': <class 'gluon.html.A'>, 'ANNOTATION_FILE_is_used': <function ANNOTATION_FILE_is_used>, 'ANY_OF': <class 'pydal.validators.ANY_OF'>, 'ASSIGNJS': <function ASSIGNJS>, 'AppConfig': <function AppConfig>, 'Auth': <class 'gluon.tools.Auth'>, 'B': <class 'gluon.html.B'>, 'BEAUTIFY': <class 'gluon.html.BEAUTIFY'>, 'BODY': <class 'gluon.html.BODY'>, 'BR': <class 'gluon.html.BR'>, ...}"
p72
sS'ccode'
p73
S'<code object <module> at 0x7f3f78620630, file "/...cations/iVar/controllers/annotation.py", line 21>'
p74
ssS'lnum'
p75
I219
sS'lines'
p76
(dp77
I214
S'    if environment is None:'
p78
sI215
S'        environment = {}'
p79
sI216
S"    environment['__file__'] = layer"
p80
sI217
S"    environment['__name__'] = '__restricted__'"
p81
sI218
S'    try:'
p82
sI219
S'        exec(ccode, environment)'
p83
sI220
S'    except HTTP:'
p84
sI221
S'        raise'
p85
sI222
S'    except RestrictedError:'
p86
sI223
S'        # do not encapsulate (obfuscate) the original RestrictedError'
p87
ssS'call'
p88
S'(ccode=<code object <module> at 0x7f3f78620630, file "/...cations/iVar/controllers/annotation.py", line 21>, environment={\'A\': <class \'gluon.html.A\'>, \'ANNOTATION_FILE_is_used\': <function ANNOTATION_FILE_is_used>, \'ANY_OF\': <class \'pydal.validators.ANY_OF\'>, \'ASSIGNJS\': <function ASSIGNJS>, \'AppConfig\': <function AppConfig>, \'Auth\': <class \'gluon.tools.Auth\'>, \'B\': <class \'gluon.html.B\'>, \'BEAUTIFY\': <class \'gluon.html.BEAUTIFY\'>, \'BODY\': <class \'gluon.html.BODY\'>, \'BR\': <class \'gluon.html.BR\'>, ...}, layer=\'/home/www-data/web2py/applications/iVar/controllers/annotation.py\', scode=<code object <module> at 0x7f3f78620630, file "/...cations/iVar/controllers/annotation.py", line 21>)'
p89
sS'func'
p90
S'restricted'
p91
sa(dp92
g67
S'/home/www-data/web2py/applications/iVar/controllers/annotation.py'
p93
sg69
(dp94
sg75
I771
sg76
(dp95
I768
S'    redirect(form_head_indietro)'
p96
sI769
S'    return'
p97
sI760
S'def annotation_type_copy():'
p98
sI761
S'    annotation_type_id = request.args(0) or None'
p99
sI762
S"    form_head_indietro = (request.vars['form_head_indietro']) if (request.vars['form_head_indietro']) else None"
p100
sI763
S'    if not annotation_type_id:'
p101
sI764
S'        session.flash = T(\'error occured during call "Duplicate Text file type\')'
p102
sI765
S'        redirect(form_head_indietro)'
p103
sI766
S''
sI767
S'    copy_ANNOTATION_TYPE(annotation_type_id)'
p104
ssg88
S'()'
p105
sg90
S'<module>'
p106
sa(dp107
g67
S'/home/www-data/web2py/gluon/globals.py'
p108
sg69
(dp109
S'self'
p110
S'undefined'
p111
sS'f'
S'<function annotation_elab>'
p112
ssg75
I421
sg76
(dp113
I416
S"        self.flash = ''            # used by the default view layout"
p114
sI417
S'        self.meta = Storage()      # used by web2py_ajax.html'
p115
sI418
S'        self.menu = []             # used by the default view layout'
p116
sI419
S'        self.files = []            # used by web2py_ajax.html'
p117
sI420
S'        self._vars = None'
p118
sI421
S'        self._caller = lambda f: f()'
p119
sI422
S'        self._view_environment = None'
p120
sI423
S'        self._custom_commit = None'
p121
sI424
S'        self._custom_rollback = None'
p122
sI425
S"        self.generic_patterns = ['*']"
p123
ssg88
S'(f=<function annotation_elab>)'
p124
sg90
S'<lambda>'
p125
sa(dp126
g67
S'/home/www-data/web2py/gluon/tools.py'
p127
sg69
(dp128
S'action'
p129
S'<function annotation_elab>'
p130
sS'a'
S'()'
p131
sS'b'
g21
ssg75
I3869
sg76
(dp132
I3872
S'            f.__dict__.update(action.__dict__)'
p133
sI3873
S'            return f'
p134
sI3864
S'                    flag = condition'
p135
sI3865
S'                if not flag:'
p136
sI3866
S'                    current.session.flash = self.messages.access_denied'
p137
sI3867
S'                    return call_or_redirect('
p138
sI3868
S'                        self.settings.on_failed_authorization)'
p139
sI3869
S'                return action(*a, **b)'
p140
sI3870
S'            f.__doc__ = action.__doc__'
p141
sI3871
S'            f.__name__ = action.__name__'
p142
ssg88
S'(*a=(), **b={})'
p143
sg90
S'f'
sa(dp144
g67
S'/home/www-data/web2py/applications/iVar/controllers/annotation.py'
p145
sg69
(dp146
S'r'
g111
sS'global annotation_file_elab'
p147
S'<function annotation_file_elab>'
p148
sS'id'
p149
S"'1246'"
p150
ssg75
I638
sg76
(dp151
I640
S"            session.flash = T('Text file processed')"
p152
sI641
S'    redirect(form_head_indietro)'
p153
sI642
S''
sI633
S"@auth.requires_permission('manage', 'ANNOTATION')"
p154
sI634
S'def annotation_elab():'
p155
sI635
S"    form_head_indietro = (request.vars['form_head_indietro']) if (request.vars['form_head_indietro']) else None"
p156
sI636
S'    id = request.args(0)'
p157
sI637
S'    if id:'
p158
sI638
S'        r = annotation_file_elab(id)'
p159
sI639
S'        if r:'
p160
ssg88
S'()'
p161
sg90
S'annotation_elab'
p162
sa(dp163
g67
S'/home/www-data/web2py/applications/iVar/controllers/annotation.py'
p164
sg69
(dp165
S'global annotation_parse'
p166
S'<function annotation_parse>'
p167
sS'esito_parse'
p168
g111
sS'id'
p169
S"'1246'"
p170
ssg75
I370
sg76
(dp171
I365
S"    row.fl_elaborated = 'X' #in processing"
p172
sI366
S''
sI367
S'    row.update_record()'
p173
sI368
S'    db.commit()'
p174
sI369
S''
sI370
S'    esito_parse = annotation_parse(id)'
p175
sI371
S'    if esito_parse == 1:'
p176
sI372
S"        db(db.ANNOTATION_FILE.id == id).update(fl_elaborated='Y')"
p177
sI373
S'        db.commit()'
p178
sI374
S'        return True'
p179
ssg88
S"(id='1246')"
p180
sg90
S'annotation_file_elab'
p181
sa(dp182
g67
S'/home/www-data/web2py/applications/iVar/controllers/annotation.py'
p183
sg69
(dp184
S'component_variant_hg19'
p185
g111
sS'global string_to_list'
p186
S'<function string_to_list>'
p187
sS'annotation_type.variant_hg19'
p188
S'\'"Gene"|"Region_type"|"Region"|"CNV type"\''
p189
sS'annotation_type'
p190
S'<Row {\'classif\': \'"Classif"\', \'classif_valid_fro..., \'char_sep\': \'\\t\', \'gene\': \'"Gene"\', \'id\': 20L}>'
p191
ssg75
I401
sg76
(dp192
I396
S'    char_sep = str(annotation_type.char_sep)'
p193
sI397
S'    if char_sep == None:'
p194
sI398
S'        char_sep = "\\t"'
p195
sI399
S''
sI400
S'    component_sample = string_to_list(annotation_type.sample)'
p196
sI401
S'    component_variant_hg19 = string_to_list(annotation_type.variant_hg19)'
p197
sI402
S'    component_variant_hg38 = string_to_list(annotation_type.variant_hg38)'
p198
sI403
S'    component_gene = string_to_list(annotation_type.gene)'
p199
sI404
S'    component_classif = string_to_list(annotation_type.classif)'
p200
sI405
S'    classif_eval = annotation_type.classif_eval'
p201
ssg88
S"(id='1246')"
p202
sg90
S'annotation_parse'
p203
sa(dp204
g67
S'/home/www-data/web2py/applications/iVar/models/ivar.py'
p205
sg69
(dp206
S'lista'
p207
S'[\'"Gene\', \'Region_type\', \'Region\', \'CNV type"\']'
p208
ssg75
I125
sg76
(dp209
I128
S'        if x[0]==\'"\':  #tolgo primo e ultimo carattere se sono "'
p210
sI129
S'            x = x[1:]'
p211
sI120
S'        lista = list()'
p212
sI121
S'        lista = string.split(\'"|"\') #trasformo in lista'
p213
sI122
S'    else:'
p214
sI123
S'        lista = string'
p215
sI124
S'    if not isinstance(lista,type(list)):'
p216
sI125
S'        lista = [lista]'
p217
sI126
S'    lis = list()'
p218
sI127
S'    for x in lista:'
p219
ssg88
S'(string=\'"Gene"|"Region_type"|"Region"|"CNV type"\')'
p220
sg90
S'string_to_list'
p221
sa(dp222
g67
S'/home/www-data/web2py/applications/iVar/models/ivar.py'
p223
sg69
(dp224
S'lista'
p225
S'[\'"Gene\', \'Region_type\', \'Region\', \'CNV type"\']'
p226
ssg75
I125
sg76
(dp227
I128
S'        if x[0]==\'"\':  #tolgo primo e ultimo carattere se sono "'
p228
sI129
S'            x = x[1:]'
p229
sI120
S'        lista = list()'
p230
sI121
S'        lista = string.split(\'"|"\') #trasformo in lista'
p231
sI122
S'    else:'
p232
sI123
S'        lista = string'
p233
sI124
S'    if not isinstance(lista,type(list)):'
p234
sI125
S'        lista = [lista]'
p235
sI126
S'    lis = list()'
p236
sI127
S'    for x in lista:'
p237
ssg88
S'(string=\'"Gene"|"Region_type"|"Region"|"CNV type"\')'
p238
sg90
g221
sa(dp239
g67
S'/home/www-data/web2py/gluon/contrib/dbg.py'
p240
sg69
(dp241
S'self.dispatch_line'
p242
S'<bound method Qdb.dispatch_line of <gluon.contrib.dbg.Qdb instance>>'
p243
sS'self'
p244
S'<gluon.contrib.dbg.Qdb instance>'
p245
sS'frame'
p246
S'<frame object>'
p247
ssg75
I112
sg76
(dp248
I107
S'        ##if self.fast_continue:'
p249
sI108
S'        ##    return self.trace_dispatch'
p250
sI109
S'        if self.quitting:'
p251
sI110
S'            return # None'
p252
sI111
S"        if event == 'line':"
p253
sI112
S'            return self.dispatch_line(frame)'
p254
sI113
S"        if event == 'call':"
p255
sI114
S'            return self.dispatch_call(frame, arg)'
p256
sI115
S"        if event == 'return':"
p257
sI116
S'            return self.dispatch_return(frame, arg)'
p258
ssg88
S"(self=<gluon.contrib.dbg.Qdb instance>, frame=<frame object>, event='line', arg=None)"
p259
sg90
S'trace_dispatch'
p260
sa(dp261
g67
S'/usr/lib/python2.7/bdb.py'
p262
sg69
(dp263
S'self'
p264
S'<gluon.contrib.dbg.Qdb instance>'
p265
sS'self.quitting'
p266
S'1'
sS'global BdbQuit'
p267
S"<class 'bdb.BdbQuit'>"
p268
ssg75
I68
sg76
(dp269
I64
S''
sI65
S'    def dispatch_line(self, frame):'
p270
sI66
S'        if self.stop_here(frame) or self.break_here(frame):'
p271
sI67
S'            self.user_line(frame)'
p272
sI68
S'            if self.quitting: raise BdbQuit'
p273
sI69
S'        return self.trace_dispatch'
p274
sI70
S''
sI71
S'    def dispatch_call(self, frame, arg):'
p275
sI72
S"        # XXX 'arg' is no longer used"
p276
sI63
S'        return self.trace_dispatch'
p277
ssg88
S'(self=<gluon.contrib.dbg.Qdb instance>, frame=<frame object>)'
p278
sg90
S'dispatch_line'
p279
sasS'pyver'
p280
S'Python 2.7.17: /usr/bin/python (prefix: /usr)'
p281
sS'session'
p282
g62
(S's\xe9\x08\x00\x00<div><table><tr><td style="font-weight:bold;vertical-align:top;">auth</td><td style="vertical-align:top;">:</td><td><div><table><tr><td style="font-weight:bold;vertical-align:top;">expiration</td><td style="vertical-align:top;">:</td><td><div>3600</div></td></tr><tr><td style="font-weight:bold;vertical-align:top;">hmac_key</td><td style="vertical-align:top;">:</td><td><div>57c73186-0e1d-4790-8c15-5edd3f08ba95</div></td></tr><tr><td style="font-weight:bold;vertical-align:top;">last_visit</td><td style="vertical-align:top;">:</td><td><div>datetime.datetime(2021, 4, 10, 10, 10, 20, 313003)</div></td></tr><tr><td style="font-weight:bold;vertical-align:top;">remember_me</td><td style="vertical-align:top;">:</td><td><div>False</div></td></tr><tr><td style="font-weight:bold;vertical-align:top;">user</td><td style="vertical-align:top;">:</td><td><div><table><tr><td style="font-weight:bold;vertical-align:top;">email</td><td style="vertical-align:top;">:</td><td><div>fede@nabla2.it</div></td></tr><tr><td style="font-weight:bold;vertical-align:top;">first_name</td><td style="vertical-align:top;">:</td><td><div>Federica</div></td></tr><tr><td style="font-weight:bold;vertical-align:top;">id</td><td style="vertical-align:top;">:</td><td><div>1L</div></td></tr><tr><td style="font-weight:bold;vertical-align:top;">last_name</td><td style="vertical-align:top;">:</td><td><div>Cestari</div></td></tr><tr><td style="font-weight:bold;vertical-align:top;">registration_id</td><td style="vertical-align:top;">:</td><td><div></div></td></tr><tr><td style="font-weight:bold;vertical-align:top;">registration_key</td><td style="vertical-align:top;">:</td><td><div></div></td></tr><tr><td style="font-weight:bold;vertical-align:top;">reset_password_key</td><td style="vertical-align:top;">:</td><td><div></div></td></tr></table></div></td></tr><tr><td style="font-weight:bold;vertical-align:top;">user_groups</td><td style="vertical-align:top;">:</td><td><div><table><tr><td style="font-weight:bold;vertical-align:top;">2</td><td style="vertical-align:top;">:</td><td><div>Admin</div></td></tr></table></div></td></tr></table></div></td></tr><tr><td style="font-weight:bold;vertical-align:top;">flash</td><td style="vertical-align:top;">:</td><td><div>None</div></td></tr></table></div>'
tRp283
sS'etype'
p284
S"<class 'bdb.BdbQuit'>"
p285
sS'date'
p286
S'Sat Apr 10 10:14:41 2021'
p287
sS'response'
p288
g62
(S's\x9a1\x00\x00<div><table><tr><td style="font-weight:bold;vertical-align:top;">body</td><td style="vertical-align:top;">:</td><td><div>&lt;cStringIO.StringO object at 0x7f3f784a80b0&gt;</div></td></tr><tr><td style="font-weight:bold;vertical-align:top;">cookies</td><td style="vertical-align:top;">:</td><td><div><table><tr><td style="font-weight:bold;vertical-align:top;">session_id_ivar</td><td style="vertical-align:top;">:</td><td><div>95.234.45.88-d53e29bc-da1d-4c1a-90ea-f6ea7a4976f5<table><tr><td style="font-weight:bold;vertical-align:top;">comment</td><td style="vertical-align:top;">:</td><td><div></div></td></tr><tr><td style="font-weight:bold;vertical-align:top;">domain</td><td style="vertical-align:top;">:</td><td><div></div></td></tr><tr><td style="font-weight:bold;vertical-align:top;">expires</td><td style="vertical-align:top;">:</td><td><div></div></td></tr><tr><td style="font-weight:bold;vertical-align:top;">httponly</td><td style="vertical-align:top;">:</td><td><div></div></td></tr><tr><td style="font-weight:bold;vertical-align:top;">max-age</td><td style="vertical-align:top;">:</td><td><div></div></td></tr><tr><td style="font-weight:bold;vertical-align:top;">path</td><td style="vertical-align:top;">:</td><td><div>/</div></td></tr><tr><td style="font-weight:bold;vertical-align:top;">samesite</td><td style="vertical-align:top;">:</td><td><div></div></td></tr><tr><td style="font-weight:bold;vertical-align:top;">secure</td><td style="vertical-align:top;">:</td><td><div></div></td></tr><tr><td style="font-weight:bold;vertical-align:top;">version</td><td style="vertical-align:top;">:</td><td><div></div></td></tr></table></div></td></tr></table></div></td></tr><tr><td style="font-weight:bold;vertical-align:top;">delimiters</td><td style="vertical-align:top;">:</td><td><div><table><tr><td><div>{{</div></td></tr><tr><td><div>}}</div></td></tr></table></div></td></tr><tr><td style="font-weight:bold;vertical-align:top;">files</td><td style="vertical-align:top;">:</td><td><div><table></table></div></td></tr><tr><td style="font-weight:bold;vertical-align:top;">flash</td><td style="vertical-align:top;">:</td><td><div></div></td></tr><tr><td style="font-weight:bold;vertical-align:top;">form_label_separator</td><td style="vertical-align:top;">:</td><td><div></div></td></tr><tr><td style="font-weight:bold;vertical-align:top;">formstyle</td><td style="vertical-align:top;">:</td><td><div>bootstrap4_inline</div></td></tr><tr><td style="font-weight:bold;vertical-align:top;">generic_patterns</td><td style="vertical-align:top;">:</td><td><div><table><tr><td><div>*</div></td></tr></table></div></td></tr><tr><td style="font-weight:bold;vertical-align:top;">google_analytics_id</td><td style="vertical-align:top;">:</td><td><div>None</div></td></tr><tr><td style="font-weight:bold;vertical-align:top;">headers</td><td style="vertical-align:top;">:</td><td><div><table><tr><td style="font-weight:bold;vertical-align:top;">X-Powered-By</td><td style="vertical-align:top;">:</td><td><div>web2py</div></td></tr></table></div></td></tr><tr><td style="font-weight:bold;vertical-align:top;">menu</td><td style="vertical-align:top;">:</td><td><div><table><tr><td><div><table><tr><td><div>Home</div></td></tr><tr><td><div>False</div></td></tr><tr><td><div>/iVar/default/index</div></td></tr></table></div></td></tr><tr><td><div><table><tr><td><div>VCF files</div></td></tr><tr><td><div>True</div></td></tr><tr><td><div>#</div></td></tr><tr><td><div><table><tr><td><div><table><tr><td><div>Import VCF</div></td></tr><tr><td><div>False</div></td></tr><tr><td><div>/iVar/vcf/import_file</div></td></tr></table></div></td></tr><tr><td><div><table><tr><td><div>Processes VCF</div></td></tr><tr><td><div>False</div></td></tr><tr><td><div>/iVar/vcf/list_edit</div></td></tr></table></div></td></tr><tr><td><div><table><tr><td><div>VCF files</div></td></tr><tr><td><div>False</div></td></tr><tr><td><div>/iVar/vcf/vcf_list</div></td></tr></table></div></td></tr><tr><td><div><table><tr><td><div>VCF types</div></td></tr><tr><td><div>False</div></td></tr><tr><td><div>/iVar/vcf/vcf_type_list</div></td></tr></table></div></td></tr><tr><td><div><table><tr><td><div>VCF analysis panel</div></td></tr><tr><td><div>False</div></td></tr><tr><td><div>/iVar/vcf/panel_list</div></td></tr></table></div></td></tr><tr><td><div><table><tr><td><div>Virtual panel for VCF filtering</div></td></tr><tr><td><div>False</div></td></tr><tr><td><div>/iVar/vcf/virtual_panel_list</div></td></tr></table></div></td></tr></table></div></td></tr></table></div></td></tr><tr><td><div><table><tr><td><div>Text files</div></td></tr><tr><td><div>False</div></td></tr><tr><td><div>#</div></td></tr><tr><td><div><table><tr><td><div><table><tr><td><div>Export VCF for re-annotation</div></td></tr><tr><td><div>False</div></td></tr><tr><td><div>/iVar/annotation/export_vcf</div></td></tr></table></div></td></tr><tr><td><div><table><tr><td><div>Import Text files</div></td></tr><tr><td><div>False</div></td></tr><tr><td><div>/iVar/annotation/import_file</div></td></tr></table></div></td></tr><tr><td><div><table><tr><td><div>Processes Text files</div></td></tr><tr><td><div>False</div></td></tr><tr><td><div>/iVar/annotation/list_edit</div></td></tr></table></div></td></tr><tr><td><div><table><tr><td><div>Text files</div></td></tr><tr><td><div>False</div></td></tr><tr><td><div>/iVar/annotation/annotation_file_list</div></td></tr></table></div></td></tr><tr><td><div><table><tr><td><div>Text file types</div></td></tr><tr><td><div>False</div></td></tr><tr><td><div>/iVar/annotation/annotation_type_list</div></td></tr></table></div></td></tr></table></div></td></tr></table></div></td></tr><tr><td><div><table><tr><td><div>Samples</div></td></tr><tr><td><div>False</div></td></tr><tr><td><div>#</div></td></tr><tr><td><div><table><tr><td><div><table><tr><td><div>Samples</div></td></tr><tr><td><div>False</div></td></tr><tr><td><div>/iVar/sample/list</div></td></tr></table></div></td></tr><tr><td><div><table><tr><td><div>Samples manage</div></td></tr><tr><td><div>False</div></td></tr><tr><td><div>/iVar/sample/list_edit</div></td></tr></table></div></td></tr><tr><td><div><table><tr><td><div>Samples and variants</div></td></tr><tr><td><div>False</div></td></tr><tr><td><div>/iVar/sample_variant/list</div></td></tr></table></div></td></tr><tr><td><div><table><tr><td><div>Tissue type</div></td></tr><tr><td><div>False</div></td></tr><tr><td><div>/iVar/sample/tissue_type_list</div></td></tr></table></div></td></tr></table></div></td></tr></table></div></td></tr><tr><td><div><table><tr><td><div>Variants</div></td></tr><tr><td><div>False</div></td></tr><tr><td><div>#</div></td></tr><tr><td><div><table><tr><td><div><table><tr><td><div>Variants</div></td></tr><tr><td><div>False</div></td></tr><tr><td><div>/iVar/variant/list</div></td></tr></table></div></td></tr><tr><td><div><table><tr><td><div>special attributes</div></td></tr><tr><td><div>False</div></td></tr><tr><td><div>/iVar/variant_query/special_attribute</div></td></tr></table></div></td></tr><tr><td><div><table><tr><td><div>current attributes</div></td></tr><tr><td><div>False</div></td></tr><tr><td><div>/iVar/variant_query/attribute_current</div></td></tr></table></div></td></tr><tr><td><div><table><tr><td><div>all attributes</div></td></tr><tr><td><div>False</div></td></tr><tr><td><div>/iVar/variant_query/attribute</div></td></tr></table></div></td></tr><tr><td><div><table><tr><td><div>with samples list</div></td></tr><tr><td><div>False</div></td></tr><tr><td><div>/iVar/variant_query/samples_list</div></td></tr></table></div></td></tr></table></div></td></tr></table></div></td></tr><tr><td><div><table><tr><td><div>Search</div></td></tr><tr><td><div>False</div></td></tr><tr><td><div>#</div></td></tr><tr><td><div><table><tr><td><div><table><tr><td><div>Variants and attributes</div></td></tr><tr><td><div>False</div></td></tr><tr><td><div>/iVar/search/variant_attribute</div></td></tr></table></div></td></tr><tr><td><div><table><tr><td><div>Search criteria</div></td></tr><tr><td><div>False</div></td></tr><tr><td><div>/iVar/search/search_criteria_list</div></td></tr></table></div></td></tr></table></div></td></tr></table></div></td></tr><tr><td><div><table><tr><td><div>Admin</div></td></tr><tr><td><div>False</div></td></tr><tr><td><div>#</div></td></tr><tr><td><div><table><tr><td><div><table><tr><td><div>User</div></td></tr><tr><td><div>True</div></td></tr><tr><td><div>/iVar/admin/user</div></td></tr></table></div></td></tr><tr><td><div><table><tr><td><div>Delete Variants attribute</div></td></tr><tr><td><div>False</div></td></tr><tr><td><div>/iVar/variant/delete_attribute</div></td></tr></table></div></td></tr></table></div></td></tr></table></div></td></tr></table></div></td></tr><tr><td style="font-weight:bold;vertical-align:top;">meta</td><td style="vertical-align:top;">:</td><td><div><table><tr><td style="font-weight:bold;vertical-align:top;">author</td><td style="vertical-align:top;">:</td><td><div>Federica Cestari</div></td></tr><tr><td style="font-weight:bold;vertical-align:top;">description</td><td style="vertical-align:top;">:</td><td><div>DataBase Genomics Variants</div></td></tr><tr><td style="font-weight:bold;vertical-align:top;">generator</td><td style="vertical-align:top;">:</td><td><div>Web2py Web Framework</div></td></tr><tr><td style="font-weight:bold;vertical-align:top;">keywords</td><td style="vertical-align:top;">:</td><td><div><table><tr><td><div>genomics</div></td></tr><tr><td><div>variant</div></td></tr><tr><td><div>UniMoRe</div></td></tr></table></div></td></tr></table></div></td></tr><tr><td style="font-weight:bold;vertical-align:top;">models_to_run</td><td style="vertical-align:top;">:</td><td><div><table><tr><td><div>^\\w+\\.py$</div></td></tr><tr><td><div>^annotation/\\w+\\.py$</div></td></tr><tr><td><div>^annotation/annotation_elab/\\w+\\.py$</div></td></tr></table></div></td></tr><tr><td style="font-weight:bold;vertical-align:top;">postprocessing</td><td style="vertical-align:top;">:</td><td><div><table></table></div></td></tr><tr><td style="font-weight:bold;vertical-align:top;">session_client</td><td style="vertical-align:top;">:</td><td><div>95.234.45.88</div></td></tr><tr><td style="font-weight:bold;vertical-align:top;">session_cookie_compression_level</td><td style="vertical-align:top;">:</td><td><div>None</div></td></tr><tr><td style="font-weight:bold;vertical-align:top;">session_cookie_expires</td><td style="vertical-align:top;">:</td><td><div>None</div></td></tr><tr><td style="font-weight:bold;vertical-align:top;">session_data_name</td><td style="vertical-align:top;">:</td><td><div>session_data_ivar</div></td></tr><tr><td style="font-weight:bold;vertical-align:top;">session_file</td><td style="vertical-align:top;">:</td><td><div>&lt;open file &#x27;/home/www-data/web2py/applications/iVar/sessions/07b/05f/95.234.45.88-d53e29bc-da1d-4c1a-90ea-f6ea7a4976f5&#x27;, mode &#x27;rb+&#x27; at 0x7f3f560390c0&gt;</div></td></tr><tr><td style="font-weight:bold;vertical-align:top;">session_filename</td><td style="vertical-align:top;">:</td><td><div>/home/www-data/web2py/applications/iVar/sessions/95.234.45.88-d53e29bc-da1d-4c1a-90ea-f6ea7a4976f5</div></td></tr><tr><td style="font-weight:bold;vertical-align:top;">session_hash</td><td style="vertical-align:top;">:</td><td><div>7c8de546fb3c9403dafac187d473951f</div></td></tr><tr><td style="font-weight:bold;vertical-align:top;">session_id</td><td style="vertical-align:top;">:</td><td><div>95.234.45.88-d53e29bc-da1d-4c1a-90ea-f6ea7a4976f5</div></td></tr><tr><td style="font-weight:bold;vertical-align:top;">session_id_name</td><td style="vertical-align:top;">:</td><td><div>session_id_ivar</div></td></tr><tr><td style="font-weight:bold;vertical-align:top;">session_locked</td><td style="vertical-align:top;">:</td><td><div>True</div></td></tr><tr><td style="font-weight:bold;vertical-align:top;">session_masterapp</td><td style="vertical-align:top;">:</td><td><div>iVar</div></td></tr><tr><td style="font-weight:bold;vertical-align:top;">session_new</td><td style="vertical-align:top;">:</td><td><div>False</div></td></tr><tr><td style="font-weight:bold;vertical-align:top;">session_storage_type</td><td style="vertical-align:top;">:</td><td><div>file</div></td></tr><tr><td style="font-weight:bold;vertical-align:top;">show_toolbar</td><td style="vertical-align:top;">:</td><td><div>False</div></td></tr><tr><td style="font-weight:bold;vertical-align:top;">status</td><td style="vertical-align:top;">:</td><td><div>200</div></td></tr><tr><td style="font-weight:bold;vertical-align:top;">view</td><td style="vertical-align:top;">:</td><td><div>annotation/annotation_elab.html</div></td></tr></table></div>'
tRp289
sS'locals'
p290
(dp291
S'frame'
p292
S'<frame object>'
p293
sS'self'
p294
S'<gluon.contrib.dbg.Qdb instance>'
p295
sssS'traceback'
p296
S'Traceback (most recent call last):\n  File "/home/www-data/web2py/gluon/restricted.py", line 219, in restricted\n    exec(ccode, environment)\n  File "/home/www-data/web2py/applications/iVar/controllers/annotation.py", line 771, in <module>\n  File "/home/www-data/web2py/gluon/globals.py", line 421, in <lambda>\n    self._caller = lambda f: f()\n  File "/home/www-data/web2py/gluon/tools.py", line 3869, in f\n    return action(*a, **b)\n  File "/home/www-data/web2py/applications/iVar/controllers/annotation.py", line 638, in annotation_elab\n    r = annotation_file_elab(id)\n  File "/home/www-data/web2py/applications/iVar/controllers/annotation.py", line 370, in annotation_file_elab\n    esito_parse = annotation_parse(id)\n  File "/home/www-data/web2py/applications/iVar/controllers/annotation.py", line 401, in annotation_parse\n    component_variant_hg19 = string_to_list(annotation_type.variant_hg19)\n  File "/home/www-data/web2py/applications/iVar/models/ivar.py", line 125, in string_to_list\n    lista = [lista]\n  File "/home/www-data/web2py/applications/iVar/models/ivar.py", line 125, in string_to_list\n    lista = [lista]\n  File "/home/www-data/web2py/gluon/contrib/dbg.py", line 112, in trace_dispatch\n    return self.dispatch_line(frame)\n  File "/usr/lib/python2.7/bdb.py", line 68, in dispatch_line\n    if self.quitting: raise BdbQuit\nBdbQuit\n'
p297
s.